

Microchip Technology PIC LITE Macro Assembler V1.45 build -152302408 
                                                                                               Wed Jul 04 14:21:05 2018

Microchip Technology Omniscient Code Generator v1.45 (Free mode) build 201711160504
     1                           	processor	16F1619
     2                           	opt	pw 120
     3                           	opt	lm
     4                           	psect	nvBANK0,global,class=BANK0,space=1,delta=1
     5                           	psect	cinit,global,class=CODE,merge=1,delta=2
     6                           	psect	bssCOMMON,global,class=COMMON,space=1,delta=1
     7                           	psect	bssBANK0,global,class=BANK0,space=1,delta=1
     8                           	psect	bssBANK1,global,class=BANK1,space=1,delta=1
     9                           	psect	bssBANK2,global,class=BANK2,space=1,delta=1
    10                           	psect	bssBANK3,global,class=BANK3,space=1,delta=1
    11                           	psect	clrtext,global,class=CODE,delta=2
    12                           	psect	cstackBANK1,global,class=BANK1,space=1,delta=1
    13                           	psect	cstackCOMMON,global,class=COMMON,space=1,delta=1
    14                           	psect	cstackBANK0,global,class=BANK0,space=1,delta=1
    15                           	psect	maintext,global,class=CODE,merge=1,split=1,delta=2
    16                           	psect	text1,local,class=CODE,merge=1,delta=2
    17                           	psect	text2,local,class=CODE,merge=1,delta=2
    18                           	psect	text3,local,class=CODE,merge=1,delta=2
    19                           	psect	text4,local,class=CODE,merge=1,delta=2
    20                           	psect	text5,local,class=CODE,merge=1,delta=2
    21                           	psect	text6,local,class=CODE,merge=1,delta=2
    22                           	psect	text7,local,class=CODE,merge=1,delta=2
    23                           	psect	text8,local,class=CODE,merge=1,delta=2
    24                           	psect	text9,local,class=CODE,merge=1,delta=2
    25                           	psect	text10,local,class=CODE,merge=1,delta=2
    26                           	psect	text11,local,class=CODE,merge=1,delta=2
    27                           	psect	text12,local,class=CODE,merge=1,delta=2
    28                           	psect	text13,local,class=CODE,merge=1,delta=2
    29                           	psect	text14,local,class=CODE,merge=1,delta=2
    30                           	psect	text15,local,class=CODE,merge=1,delta=2
    31                           	psect	text16,local,class=CODE,merge=1,delta=2
    32                           	psect	text17,local,class=CODE,merge=1,delta=2
    33                           	psect	text18,local,class=CODE,merge=1,delta=2
    34                           	psect	text19,local,class=CODE,merge=1,delta=2
    35                           	psect	text20,local,class=CODE,merge=1,delta=2
    36                           	psect	intentry,global,class=CODE,delta=2
    37                           	psect	text22,local,class=CODE,merge=1,delta=2
    38                           	psect	text23,local,class=CODE,merge=1,delta=2
    39                           	dabs	1,0x7E,2
    40  0000                     
    41                           ; Version 1.45
    42                           ; Generated 16/11/2017 GMT
    43                           ; 
    44                           ; Copyright © 2017, Microchip Technology Inc. and its subsidiaries ("Microchip")
    45                           ; All rights reserved.
    46                           ; 
    47                           ; This software is developed by Microchip Technology Inc. and its subsidiaries ("Microch
      +                          ip").
    48                           ; 
    49                           ; Redistribution and use in source and binary forms, with or without modification, are
    50                           ; permitted provided that the following conditions are met:
    51                           ; 
    52                           ;     1. Redistributions of source code must retain the above copyright notice, this lis
      +                          t of
    53                           ;        conditions and the following disclaimer.
    54                           ; 
    55                           ;     2. Redistributions in binary form must reproduce the above copyright notice, this 
      +                          list
    56                           ;        of conditions and the following disclaimer in the documentation and/or other
    57                           ;        materials provided with the distribution.
    58                           ; 
    59                           ;     3. Microchip's name may not be used to endorse or promote products derived from th
      +                          is
    60                           ;        software without specific prior written permission.
    61                           ; 
    62                           ; THIS SOFTWARE IS PROVIDED BY MICROCHIP "AS IS" AND ANY EXPRESS OR IMPLIED WARRANTIES,
    63                           ; INCLUDING, BUT NOT LIMITED TO, THE IMPLIED WARRANTIES OF MERCHANTABILITY AND FITNESS F
      +                          OR
    64                           ; PURPOSE ARE DISCLAIMED.  IN NO EVENT SHALL MICROCHIP BE LIABLE FOR ANY DIRECT, INDIREC
      +                          T,
    65                           ; INCIDENTAL, SPECIAL, EXEMPLARY, OR CONSEQUENTIAL DAMAGES (INCLUDING BUT NOT LIMITED TO
    66                           ; PROCUREMENT OF SUBSTITUTE GOODS OR SERVICES; LOSS OF USE, DATA OR PROFITS; OR BUSINESS
    67                           ; INTERRUPTION) HOWSOEVER CAUSED AND ON ANY THEORY OF LIABILITY, WHETHER IN CONTRACT, ST
      +                          RICT
    68                           ; LIABILITY, OR TORT (INCLUDING NEGLIGENCE OR OTHERWISE) ARISING IN ANY WAY OUT OF THE U
      +                          SE OF
    69                           ; THIS SOFTWARE, EVEN IF ADVISED OF THE POSSIBILITY OF SUCH DAMAGE.
    70                           ; 
    71                           ; 
    72                           ; Code-generator required, PIC16F1619 Definitions
    73                           ; 
    74                           ; SFR Addresses
    75  0000                     	;# 
    76  0001                     	;# 
    77  0002                     	;# 
    78  0003                     	;# 
    79  0004                     	;# 
    80  0005                     	;# 
    81  0006                     	;# 
    82  0007                     	;# 
    83  0008                     	;# 
    84  0009                     	;# 
    85  000A                     	;# 
    86  000B                     	;# 
    87  000C                     	;# 
    88  000D                     	;# 
    89  000E                     	;# 
    90  0010                     	;# 
    91  0011                     	;# 
    92  0012                     	;# 
    93  0013                     	;# 
    94  0014                     	;# 
    95  0015                     	;# 
    96  0016                     	;# 
    97  0016                     	;# 
    98  0017                     	;# 
    99  0018                     	;# 
   100  0019                     	;# 
   101  001A                     	;# 
   102  001A                     	;# 
   103  001B                     	;# 
   104  001B                     	;# 
   105  001C                     	;# 
   106  001D                     	;# 
   107  001E                     	;# 
   108  001F                     	;# 
   109  008C                     	;# 
   110  008D                     	;# 
   111  008E                     	;# 
   112  0090                     	;# 
   113  0091                     	;# 
   114  0092                     	;# 
   115  0093                     	;# 
   116  0094                     	;# 
   117  0095                     	;# 
   118  0096                     	;# 
   119  0098                     	;# 
   120  0099                     	;# 
   121  009A                     	;# 
   122  009B                     	;# 
   123  009B                     	;# 
   124  009C                     	;# 
   125  009D                     	;# 
   126  009E                     	;# 
   127  009F                     	;# 
   128  010C                     	;# 
   129  010D                     	;# 
   130  010E                     	;# 
   131  0111                     	;# 
   132  0112                     	;# 
   133  0113                     	;# 
   134  0114                     	;# 
   135  0115                     	;# 
   136  0116                     	;# 
   137  0117                     	;# 
   138  0118                     	;# 
   139  0119                     	;# 
   140  011C                     	;# 
   141  018C                     	;# 
   142  018D                     	;# 
   143  018E                     	;# 
   144  0191                     	;# 
   145  0191                     	;# 
   146  0192                     	;# 
   147  0193                     	;# 
   148  0193                     	;# 
   149  0194                     	;# 
   150  0195                     	;# 
   151  0196                     	;# 
   152  0197                     	;# 
   153  0199                     	;# 
   154  0199                     	;# 
   155  0199                     	;# 
   156  019A                     	;# 
   157  019A                     	;# 
   158  019A                     	;# 
   159  019B                     	;# 
   160  019B                     	;# 
   161  019B                     	;# 
   162  019B                     	;# 
   163  019B                     	;# 
   164  019C                     	;# 
   165  019C                     	;# 
   166  019C                     	;# 
   167  019D                     	;# 
   168  019D                     	;# 
   169  019D                     	;# 
   170  019E                     	;# 
   171  019E                     	;# 
   172  019E                     	;# 
   173  019F                     	;# 
   174  019F                     	;# 
   175  019F                     	;# 
   176  019F                     	;# 
   177  019F                     	;# 
   178  020C                     	;# 
   179  020D                     	;# 
   180  020E                     	;# 
   181  0211                     	;# 
   182  0211                     	;# 
   183  0212                     	;# 
   184  0212                     	;# 
   185  0213                     	;# 
   186  0213                     	;# 
   187  0214                     	;# 
   188  0214                     	;# 
   189  0215                     	;# 
   190  0215                     	;# 
   191  0215                     	;# 
   192  0215                     	;# 
   193  0216                     	;# 
   194  0216                     	;# 
   195  0217                     	;# 
   196  0217                     	;# 
   197  028C                     	;# 
   198  028D                     	;# 
   199  028E                     	;# 
   200  0291                     	;# 
   201  0291                     	;# 
   202  0292                     	;# 
   203  0293                     	;# 
   204  0294                     	;# 
   205  0298                     	;# 
   206  0298                     	;# 
   207  0299                     	;# 
   208  029A                     	;# 
   209  029B                     	;# 
   210  029E                     	;# 
   211  030C                     	;# 
   212  030D                     	;# 
   213  030E                     	;# 
   214  038C                     	;# 
   215  038D                     	;# 
   216  038E                     	;# 
   217  0391                     	;# 
   218  0392                     	;# 
   219  0393                     	;# 
   220  0394                     	;# 
   221  0395                     	;# 
   222  0396                     	;# 
   223  0397                     	;# 
   224  0398                     	;# 
   225  0399                     	;# 
   226  040E                     	;# 
   227  0413                     	;# 
   228  0413                     	;# 
   229  0414                     	;# 
   230  0414                     	;# 
   231  0415                     	;# 
   232  0416                     	;# 
   233  0417                     	;# 
   234  0418                     	;# 
   235  041A                     	;# 
   236  041A                     	;# 
   237  041B                     	;# 
   238  041B                     	;# 
   239  041C                     	;# 
   240  041D                     	;# 
   241  041E                     	;# 
   242  041F                     	;# 
   243  0493                     	;# 
   244  0494                     	;# 
   245  0495                     	;# 
   246  0496                     	;# 
   247  049A                     	;# 
   248  049B                     	;# 
   249  049C                     	;# 
   250  049D                     	;# 
   251  058C                     	;# 
   252  058C                     	;# 
   253  058D                     	;# 
   254  058E                     	;# 
   255  058E                     	;# 
   256  058F                     	;# 
   257  0590                     	;# 
   258  0590                     	;# 
   259  0591                     	;# 
   260  0592                     	;# 
   261  0592                     	;# 
   262  0593                     	;# 
   263  0594                     	;# 
   264  0594                     	;# 
   265  0595                     	;# 
   266  0596                     	;# 
   267  0596                     	;# 
   268  0597                     	;# 
   269  0598                     	;# 
   270  0599                     	;# 
   271  059A                     	;# 
   272  059B                     	;# 
   273  059B                     	;# 
   274  059C                     	;# 
   275  059D                     	;# 
   276  060C                     	;# 
   277  060C                     	;# 
   278  060D                     	;# 
   279  060E                     	;# 
   280  060F                     	;# 
   281  060F                     	;# 
   282  0610                     	;# 
   283  0611                     	;# 
   284  0612                     	;# 
   285  0613                     	;# 
   286  0614                     	;# 
   287  0617                     	;# 
   288  0618                     	;# 
   289  0619                     	;# 
   290  061A                     	;# 
   291  061B                     	;# 
   292  061C                     	;# 
   293  0691                     	;# 
   294  0692                     	;# 
   295  0693                     	;# 
   296  0694                     	;# 
   297  0695                     	;# 
   298  0696                     	;# 
   299  0697                     	;# 
   300  0699                     	;# 
   301  069A                     	;# 
   302  0711                     	;# 
   303  0712                     	;# 
   304  0713                     	;# 
   305  0714                     	;# 
   306  0715                     	;# 
   307  0718                     	;# 
   308  0718                     	;# 
   309  0719                     	;# 
   310  071A                     	;# 
   311  071A                     	;# 
   312  071B                     	;# 
   313  071C                     	;# 
   314  071D                     	;# 
   315  0791                     	;# 
   316  0791                     	;# 
   317  0792                     	;# 
   318  0793                     	;# 
   319  0793                     	;# 
   320  0794                     	;# 
   321  0795                     	;# 
   322  0795                     	;# 
   323  0796                     	;# 
   324  0797                     	;# 
   325  0797                     	;# 
   326  0798                     	;# 
   327  0799                     	;# 
   328  079A                     	;# 
   329  080C                     	;# 
   330  080C                     	;# 
   331  080D                     	;# 
   332  080E                     	;# 
   333  080E                     	;# 
   334  080F                     	;# 
   335  0810                     	;# 
   336  0810                     	;# 
   337  0811                     	;# 
   338  0812                     	;# 
   339  0812                     	;# 
   340  0813                     	;# 
   341  0814                     	;# 
   342  0815                     	;# 
   343  0816                     	;# 
   344  0817                     	;# 
   345  0818                     	;# 
   346  0819                     	;# 
   347  081A                     	;# 
   348  081A                     	;# 
   349  081B                     	;# 
   350  081C                     	;# 
   351  081C                     	;# 
   352  081D                     	;# 
   353  088C                     	;# 
   354  088D                     	;# 
   355  088E                     	;# 
   356  088F                     	;# 
   357  088F                     	;# 
   358  0890                     	;# 
   359  0891                     	;# 
   360  0892                     	;# 
   361  0893                     	;# 
   362  0893                     	;# 
   363  0894                     	;# 
   364  0895                     	;# 
   365  0896                     	;# 
   366  0897                     	;# 
   367  0897                     	;# 
   368  0898                     	;# 
   369  0899                     	;# 
   370  0D8C                     	;# 
   371  0D8C                     	;# 
   372  0D8D                     	;# 
   373  0D8E                     	;# 
   374  0D8F                     	;# 
   375  0D8F                     	;# 
   376  0D90                     	;# 
   377  0D91                     	;# 
   378  0D92                     	;# 
   379  0D92                     	;# 
   380  0D93                     	;# 
   381  0D94                     	;# 
   382  0D95                     	;# 
   383  0D95                     	;# 
   384  0D96                     	;# 
   385  0D97                     	;# 
   386  0D98                     	;# 
   387  0D99                     	;# 
   388  0D9A                     	;# 
   389  0D9B                     	;# 
   390  0D9C                     	;# 
   391  0D9D                     	;# 
   392  0D9E                     	;# 
   393  0D9E                     	;# 
   394  0D9F                     	;# 
   395  0DA0                     	;# 
   396  0DA1                     	;# 
   397  0DA1                     	;# 
   398  0DA2                     	;# 
   399  0DA3                     	;# 
   400  0DA4                     	;# 
   401  0DA4                     	;# 
   402  0DA5                     	;# 
   403  0DA6                     	;# 
   404  0DA7                     	;# 
   405  0DA7                     	;# 
   406  0DA8                     	;# 
   407  0DA9                     	;# 
   408  0DAA                     	;# 
   409  0DAB                     	;# 
   410  0DAC                     	;# 
   411  0DAD                     	;# 
   412  0DAE                     	;# 
   413  0DAF                     	;# 
   414  0E0F                     	;# 
   415  0E10                     	;# 
   416  0E11                     	;# 
   417  0E12                     	;# 
   418  0E13                     	;# 
   419  0E14                     	;# 
   420  0E15                     	;# 
   421  0E16                     	;# 
   422  0E17                     	;# 
   423  0E18                     	;# 
   424  0E19                     	;# 
   425  0E1A                     	;# 
   426  0E1B                     	;# 
   427  0E1C                     	;# 
   428  0E1D                     	;# 
   429  0E1E                     	;# 
   430  0E1F                     	;# 
   431  0E20                     	;# 
   432  0E21                     	;# 
   433  0E22                     	;# 
   434  0E23                     	;# 
   435  0E24                     	;# 
   436  0E25                     	;# 
   437  0E26                     	;# 
   438  0E27                     	;# 
   439  0E28                     	;# 
   440  0E29                     	;# 
   441  0E2A                     	;# 
   442  0E2B                     	;# 
   443  0E2C                     	;# 
   444  0E2D                     	;# 
   445  0E2E                     	;# 
   446  0E90                     	;# 
   447  0E91                     	;# 
   448  0E92                     	;# 
   449  0E94                     	;# 
   450  0E95                     	;# 
   451  0E9C                     	;# 
   452  0E9D                     	;# 
   453  0E9E                     	;# 
   454  0E9F                     	;# 
   455  0EA0                     	;# 
   456  0EA1                     	;# 
   457  0EA2                     	;# 
   458  0EA3                     	;# 
   459  0EA4                     	;# 
   460  0EA5                     	;# 
   461  0EA6                     	;# 
   462  0EA7                     	;# 
   463  0F0F                     	;# 
   464  0F10                     	;# 
   465  0F11                     	;# 
   466  0F12                     	;# 
   467  0F13                     	;# 
   468  0F14                     	;# 
   469  0F15                     	;# 
   470  0F16                     	;# 
   471  0F17                     	;# 
   472  0F18                     	;# 
   473  0F19                     	;# 
   474  0F1A                     	;# 
   475  0F1B                     	;# 
   476  0F1C                     	;# 
   477  0F1D                     	;# 
   478  0F1E                     	;# 
   479  0F1F                     	;# 
   480  0F20                     	;# 
   481  0F21                     	;# 
   482  0F22                     	;# 
   483  0F23                     	;# 
   484  0F24                     	;# 
   485  0F25                     	;# 
   486  0F26                     	;# 
   487  0F27                     	;# 
   488  0F28                     	;# 
   489  0F29                     	;# 
   490  0F2A                     	;# 
   491  0F2B                     	;# 
   492  0F2C                     	;# 
   493  0F2D                     	;# 
   494  0F2E                     	;# 
   495  0F2F                     	;# 
   496  0F30                     	;# 
   497  0F31                     	;# 
   498  0F32                     	;# 
   499  0F33                     	;# 
   500  0F34                     	;# 
   501  0F35                     	;# 
   502  0F36                     	;# 
   503  0F37                     	;# 
   504  0FE4                     	;# 
   505  0FE5                     	;# 
   506  0FE6                     	;# 
   507  0FE7                     	;# 
   508  0FE8                     	;# 
   509  0FE9                     	;# 
   510  0FEA                     	;# 
   511  0FEB                     	;# 
   512  0FED                     	;# 
   513  0FEE                     	;# 
   514  0FEF                     	;# 
   515  0000                     	;# 
   516  0001                     	;# 
   517  0002                     	;# 
   518  0003                     	;# 
   519  0004                     	;# 
   520  0005                     	;# 
   521  0006                     	;# 
   522  0007                     	;# 
   523  0008                     	;# 
   524  0009                     	;# 
   525  000A                     	;# 
   526  000B                     	;# 
   527  000C                     	;# 
   528  000D                     	;# 
   529  000E                     	;# 
   530  0010                     	;# 
   531  0011                     	;# 
   532  0012                     	;# 
   533  0013                     	;# 
   534  0014                     	;# 
   535  0015                     	;# 
   536  0016                     	;# 
   537  0016                     	;# 
   538  0017                     	;# 
   539  0018                     	;# 
   540  0019                     	;# 
   541  001A                     	;# 
   542  001A                     	;# 
   543  001B                     	;# 
   544  001B                     	;# 
   545  001C                     	;# 
   546  001D                     	;# 
   547  001E                     	;# 
   548  001F                     	;# 
   549  008C                     	;# 
   550  008D                     	;# 
   551  008E                     	;# 
   552  0090                     	;# 
   553  0091                     	;# 
   554  0092                     	;# 
   555  0093                     	;# 
   556  0094                     	;# 
   557  0095                     	;# 
   558  0096                     	;# 
   559  0098                     	;# 
   560  0099                     	;# 
   561  009A                     	;# 
   562  009B                     	;# 
   563  009B                     	;# 
   564  009C                     	;# 
   565  009D                     	;# 
   566  009E                     	;# 
   567  009F                     	;# 
   568  010C                     	;# 
   569  010D                     	;# 
   570  010E                     	;# 
   571  0111                     	;# 
   572  0112                     	;# 
   573  0113                     	;# 
   574  0114                     	;# 
   575  0115                     	;# 
   576  0116                     	;# 
   577  0117                     	;# 
   578  0118                     	;# 
   579  0119                     	;# 
   580  011C                     	;# 
   581  018C                     	;# 
   582  018D                     	;# 
   583  018E                     	;# 
   584  0191                     	;# 
   585  0191                     	;# 
   586  0192                     	;# 
   587  0193                     	;# 
   588  0193                     	;# 
   589  0194                     	;# 
   590  0195                     	;# 
   591  0196                     	;# 
   592  0197                     	;# 
   593  0199                     	;# 
   594  0199                     	;# 
   595  0199                     	;# 
   596  019A                     	;# 
   597  019A                     	;# 
   598  019A                     	;# 
   599  019B                     	;# 
   600  019B                     	;# 
   601  019B                     	;# 
   602  019B                     	;# 
   603  019B                     	;# 
   604  019C                     	;# 
   605  019C                     	;# 
   606  019C                     	;# 
   607  019D                     	;# 
   608  019D                     	;# 
   609  019D                     	;# 
   610  019E                     	;# 
   611  019E                     	;# 
   612  019E                     	;# 
   613  019F                     	;# 
   614  019F                     	;# 
   615  019F                     	;# 
   616  019F                     	;# 
   617  019F                     	;# 
   618  020C                     	;# 
   619  020D                     	;# 
   620  020E                     	;# 
   621  0211                     	;# 
   622  0211                     	;# 
   623  0212                     	;# 
   624  0212                     	;# 
   625  0213                     	;# 
   626  0213                     	;# 
   627  0214                     	;# 
   628  0214                     	;# 
   629  0215                     	;# 
   630  0215                     	;# 
   631  0215                     	;# 
   632  0215                     	;# 
   633  0216                     	;# 
   634  0216                     	;# 
   635  0217                     	;# 
   636  0217                     	;# 
   637  028C                     	;# 
   638  028D                     	;# 
   639  028E                     	;# 
   640  0291                     	;# 
   641  0291                     	;# 
   642  0292                     	;# 
   643  0293                     	;# 
   644  0294                     	;# 
   645  0298                     	;# 
   646  0298                     	;# 
   647  0299                     	;# 
   648  029A                     	;# 
   649  029B                     	;# 
   650  029E                     	;# 
   651  030C                     	;# 
   652  030D                     	;# 
   653  030E                     	;# 
   654  038C                     	;# 
   655  038D                     	;# 
   656  038E                     	;# 
   657  0391                     	;# 
   658  0392                     	;# 
   659  0393                     	;# 
   660  0394                     	;# 
   661  0395                     	;# 
   662  0396                     	;# 
   663  0397                     	;# 
   664  0398                     	;# 
   665  0399                     	;# 
   666  040E                     	;# 
   667  0413                     	;# 
   668  0413                     	;# 
   669  0414                     	;# 
   670  0414                     	;# 
   671  0415                     	;# 
   672  0416                     	;# 
   673  0417                     	;# 
   674  0418                     	;# 
   675  041A                     	;# 
   676  041A                     	;# 
   677  041B                     	;# 
   678  041B                     	;# 
   679  041C                     	;# 
   680  041D                     	;# 
   681  041E                     	;# 
   682  041F                     	;# 
   683  0493                     	;# 
   684  0494                     	;# 
   685  0495                     	;# 
   686  0496                     	;# 
   687  049A                     	;# 
   688  049B                     	;# 
   689  049C                     	;# 
   690  049D                     	;# 
   691  058C                     	;# 
   692  058C                     	;# 
   693  058D                     	;# 
   694  058E                     	;# 
   695  058E                     	;# 
   696  058F                     	;# 
   697  0590                     	;# 
   698  0590                     	;# 
   699  0591                     	;# 
   700  0592                     	;# 
   701  0592                     	;# 
   702  0593                     	;# 
   703  0594                     	;# 
   704  0594                     	;# 
   705  0595                     	;# 
   706  0596                     	;# 
   707  0596                     	;# 
   708  0597                     	;# 
   709  0598                     	;# 
   710  0599                     	;# 
   711  059A                     	;# 
   712  059B                     	;# 
   713  059B                     	;# 
   714  059C                     	;# 
   715  059D                     	;# 
   716  060C                     	;# 
   717  060C                     	;# 
   718  060D                     	;# 
   719  060E                     	;# 
   720  060F                     	;# 
   721  060F                     	;# 
   722  0610                     	;# 
   723  0611                     	;# 
   724  0612                     	;# 
   725  0613                     	;# 
   726  0614                     	;# 
   727  0617                     	;# 
   728  0618                     	;# 
   729  0619                     	;# 
   730  061A                     	;# 
   731  061B                     	;# 
   732  061C                     	;# 
   733  0691                     	;# 
   734  0692                     	;# 
   735  0693                     	;# 
   736  0694                     	;# 
   737  0695                     	;# 
   738  0696                     	;# 
   739  0697                     	;# 
   740  0699                     	;# 
   741  069A                     	;# 
   742  0711                     	;# 
   743  0712                     	;# 
   744  0713                     	;# 
   745  0714                     	;# 
   746  0715                     	;# 
   747  0718                     	;# 
   748  0718                     	;# 
   749  0719                     	;# 
   750  071A                     	;# 
   751  071A                     	;# 
   752  071B                     	;# 
   753  071C                     	;# 
   754  071D                     	;# 
   755  0791                     	;# 
   756  0791                     	;# 
   757  0792                     	;# 
   758  0793                     	;# 
   759  0793                     	;# 
   760  0794                     	;# 
   761  0795                     	;# 
   762  0795                     	;# 
   763  0796                     	;# 
   764  0797                     	;# 
   765  0797                     	;# 
   766  0798                     	;# 
   767  0799                     	;# 
   768  079A                     	;# 
   769  080C                     	;# 
   770  080C                     	;# 
   771  080D                     	;# 
   772  080E                     	;# 
   773  080E                     	;# 
   774  080F                     	;# 
   775  0810                     	;# 
   776  0810                     	;# 
   777  0811                     	;# 
   778  0812                     	;# 
   779  0812                     	;# 
   780  0813                     	;# 
   781  0814                     	;# 
   782  0815                     	;# 
   783  0816                     	;# 
   784  0817                     	;# 
   785  0818                     	;# 
   786  0819                     	;# 
   787  081A                     	;# 
   788  081A                     	;# 
   789  081B                     	;# 
   790  081C                     	;# 
   791  081C                     	;# 
   792  081D                     	;# 
   793  088C                     	;# 
   794  088D                     	;# 
   795  088E                     	;# 
   796  088F                     	;# 
   797  088F                     	;# 
   798  0890                     	;# 
   799  0891                     	;# 
   800  0892                     	;# 
   801  0893                     	;# 
   802  0893                     	;# 
   803  0894                     	;# 
   804  0895                     	;# 
   805  0896                     	;# 
   806  0897                     	;# 
   807  0897                     	;# 
   808  0898                     	;# 
   809  0899                     	;# 
   810  0D8C                     	;# 
   811  0D8C                     	;# 
   812  0D8D                     	;# 
   813  0D8E                     	;# 
   814  0D8F                     	;# 
   815  0D8F                     	;# 
   816  0D90                     	;# 
   817  0D91                     	;# 
   818  0D92                     	;# 
   819  0D92                     	;# 
   820  0D93                     	;# 
   821  0D94                     	;# 
   822  0D95                     	;# 
   823  0D95                     	;# 
   824  0D96                     	;# 
   825  0D97                     	;# 
   826  0D98                     	;# 
   827  0D99                     	;# 
   828  0D9A                     	;# 
   829  0D9B                     	;# 
   830  0D9C                     	;# 
   831  0D9D                     	;# 
   832  0D9E                     	;# 
   833  0D9E                     	;# 
   834  0D9F                     	;# 
   835  0DA0                     	;# 
   836  0DA1                     	;# 
   837  0DA1                     	;# 
   838  0DA2                     	;# 
   839  0DA3                     	;# 
   840  0DA4                     	;# 
   841  0DA4                     	;# 
   842  0DA5                     	;# 
   843  0DA6                     	;# 
   844  0DA7                     	;# 
   845  0DA7                     	;# 
   846  0DA8                     	;# 
   847  0DA9                     	;# 
   848  0DAA                     	;# 
   849  0DAB                     	;# 
   850  0DAC                     	;# 
   851  0DAD                     	;# 
   852  0DAE                     	;# 
   853  0DAF                     	;# 
   854  0E0F                     	;# 
   855  0E10                     	;# 
   856  0E11                     	;# 
   857  0E12                     	;# 
   858  0E13                     	;# 
   859  0E14                     	;# 
   860  0E15                     	;# 
   861  0E16                     	;# 
   862  0E17                     	;# 
   863  0E18                     	;# 
   864  0E19                     	;# 
   865  0E1A                     	;# 
   866  0E1B                     	;# 
   867  0E1C                     	;# 
   868  0E1D                     	;# 
   869  0E1E                     	;# 
   870  0E1F                     	;# 
   871  0E20                     	;# 
   872  0E21                     	;# 
   873  0E22                     	;# 
   874  0E23                     	;# 
   875  0E24                     	;# 
   876  0E25                     	;# 
   877  0E26                     	;# 
   878  0E27                     	;# 
   879  0E28                     	;# 
   880  0E29                     	;# 
   881  0E2A                     	;# 
   882  0E2B                     	;# 
   883  0E2C                     	;# 
   884  0E2D                     	;# 
   885  0E2E                     	;# 
   886  0E90                     	;# 
   887  0E91                     	;# 
   888  0E92                     	;# 
   889  0E94                     	;# 
   890  0E95                     	;# 
   891  0E9C                     	;# 
   892  0E9D                     	;# 
   893  0E9E                     	;# 
   894  0E9F                     	;# 
   895  0EA0                     	;# 
   896  0EA1                     	;# 
   897  0EA2                     	;# 
   898  0EA3                     	;# 
   899  0EA4                     	;# 
   900  0EA5                     	;# 
   901  0EA6                     	;# 
   902  0EA7                     	;# 
   903  0F0F                     	;# 
   904  0F10                     	;# 
   905  0F11                     	;# 
   906  0F12                     	;# 
   907  0F13                     	;# 
   908  0F14                     	;# 
   909  0F15                     	;# 
   910  0F16                     	;# 
   911  0F17                     	;# 
   912  0F18                     	;# 
   913  0F19                     	;# 
   914  0F1A                     	;# 
   915  0F1B                     	;# 
   916  0F1C                     	;# 
   917  0F1D                     	;# 
   918  0F1E                     	;# 
   919  0F1F                     	;# 
   920  0F20                     	;# 
   921  0F21                     	;# 
   922  0F22                     	;# 
   923  0F23                     	;# 
   924  0F24                     	;# 
   925  0F25                     	;# 
   926  0F26                     	;# 
   927  0F27                     	;# 
   928  0F28                     	;# 
   929  0F29                     	;# 
   930  0F2A                     	;# 
   931  0F2B                     	;# 
   932  0F2C                     	;# 
   933  0F2D                     	;# 
   934  0F2E                     	;# 
   935  0F2F                     	;# 
   936  0F30                     	;# 
   937  0F31                     	;# 
   938  0F32                     	;# 
   939  0F33                     	;# 
   940  0F34                     	;# 
   941  0F35                     	;# 
   942  0F36                     	;# 
   943  0F37                     	;# 
   944  0FE4                     	;# 
   945  0FE5                     	;# 
   946  0FE6                     	;# 
   947  0FE7                     	;# 
   948  0FE8                     	;# 
   949  0FE9                     	;# 
   950  0FEA                     	;# 
   951  0FEB                     	;# 
   952  0FED                     	;# 
   953  0FEE                     	;# 
   954  0FEF                     	;# 
   955  0000                     	;# 
   956  0001                     	;# 
   957  0002                     	;# 
   958  0003                     	;# 
   959  0004                     	;# 
   960  0005                     	;# 
   961  0006                     	;# 
   962  0007                     	;# 
   963  0008                     	;# 
   964  0009                     	;# 
   965  000A                     	;# 
   966  000B                     	;# 
   967  000C                     	;# 
   968  000D                     	;# 
   969  000E                     	;# 
   970  0010                     	;# 
   971  0011                     	;# 
   972  0012                     	;# 
   973  0013                     	;# 
   974  0014                     	;# 
   975  0015                     	;# 
   976  0016                     	;# 
   977  0016                     	;# 
   978  0017                     	;# 
   979  0018                     	;# 
   980  0019                     	;# 
   981  001A                     	;# 
   982  001A                     	;# 
   983  001B                     	;# 
   984  001B                     	;# 
   985  001C                     	;# 
   986  001D                     	;# 
   987  001E                     	;# 
   988  001F                     	;# 
   989  008C                     	;# 
   990  008D                     	;# 
   991  008E                     	;# 
   992  0090                     	;# 
   993  0091                     	;# 
   994  0092                     	;# 
   995  0093                     	;# 
   996  0094                     	;# 
   997  0095                     	;# 
   998  0096                     	;# 
   999  0098                     	;# 
  1000  0099                     	;# 
  1001  009A                     	;# 
  1002  009B                     	;# 
  1003  009B                     	;# 
  1004  009C                     	;# 
  1005  009D                     	;# 
  1006  009E                     	;# 
  1007  009F                     	;# 
  1008  010C                     	;# 
  1009  010D                     	;# 
  1010  010E                     	;# 
  1011  0111                     	;# 
  1012  0112                     	;# 
  1013  0113                     	;# 
  1014  0114                     	;# 
  1015  0115                     	;# 
  1016  0116                     	;# 
  1017  0117                     	;# 
  1018  0118                     	;# 
  1019  0119                     	;# 
  1020  011C                     	;# 
  1021  018C                     	;# 
  1022  018D                     	;# 
  1023  018E                     	;# 
  1024  0191                     	;# 
  1025  0191                     	;# 
  1026  0192                     	;# 
  1027  0193                     	;# 
  1028  0193                     	;# 
  1029  0194                     	;# 
  1030  0195                     	;# 
  1031  0196                     	;# 
  1032  0197                     	;# 
  1033  0199                     	;# 
  1034  0199                     	;# 
  1035  0199                     	;# 
  1036  019A                     	;# 
  1037  019A                     	;# 
  1038  019A                     	;# 
  1039  019B                     	;# 
  1040  019B                     	;# 
  1041  019B                     	;# 
  1042  019B                     	;# 
  1043  019B                     	;# 
  1044  019C                     	;# 
  1045  019C                     	;# 
  1046  019C                     	;# 
  1047  019D                     	;# 
  1048  019D                     	;# 
  1049  019D                     	;# 
  1050  019E                     	;# 
  1051  019E                     	;# 
  1052  019E                     	;# 
  1053  019F                     	;# 
  1054  019F                     	;# 
  1055  019F                     	;# 
  1056  019F                     	;# 
  1057  019F                     	;# 
  1058  020C                     	;# 
  1059  020D                     	;# 
  1060  020E                     	;# 
  1061  0211                     	;# 
  1062  0211                     	;# 
  1063  0212                     	;# 
  1064  0212                     	;# 
  1065  0213                     	;# 
  1066  0213                     	;# 
  1067  0214                     	;# 
  1068  0214                     	;# 
  1069  0215                     	;# 
  1070  0215                     	;# 
  1071  0215                     	;# 
  1072  0215                     	;# 
  1073  0216                     	;# 
  1074  0216                     	;# 
  1075  0217                     	;# 
  1076  0217                     	;# 
  1077  028C                     	;# 
  1078  028D                     	;# 
  1079  028E                     	;# 
  1080  0291                     	;# 
  1081  0291                     	;# 
  1082  0292                     	;# 
  1083  0293                     	;# 
  1084  0294                     	;# 
  1085  0298                     	;# 
  1086  0298                     	;# 
  1087  0299                     	;# 
  1088  029A                     	;# 
  1089  029B                     	;# 
  1090  029E                     	;# 
  1091  030C                     	;# 
  1092  030D                     	;# 
  1093  030E                     	;# 
  1094  038C                     	;# 
  1095  038D                     	;# 
  1096  038E                     	;# 
  1097  0391                     	;# 
  1098  0392                     	;# 
  1099  0393                     	;# 
  1100  0394                     	;# 
  1101  0395                     	;# 
  1102  0396                     	;# 
  1103  0397                     	;# 
  1104  0398                     	;# 
  1105  0399                     	;# 
  1106  040E                     	;# 
  1107  0413                     	;# 
  1108  0413                     	;# 
  1109  0414                     	;# 
  1110  0414                     	;# 
  1111  0415                     	;# 
  1112  0416                     	;# 
  1113  0417                     	;# 
  1114  0418                     	;# 
  1115  041A                     	;# 
  1116  041A                     	;# 
  1117  041B                     	;# 
  1118  041B                     	;# 
  1119  041C                     	;# 
  1120  041D                     	;# 
  1121  041E                     	;# 
  1122  041F                     	;# 
  1123  0493                     	;# 
  1124  0494                     	;# 
  1125  0495                     	;# 
  1126  0496                     	;# 
  1127  049A                     	;# 
  1128  049B                     	;# 
  1129  049C                     	;# 
  1130  049D                     	;# 
  1131  058C                     	;# 
  1132  058C                     	;# 
  1133  058D                     	;# 
  1134  058E                     	;# 
  1135  058E                     	;# 
  1136  058F                     	;# 
  1137  0590                     	;# 
  1138  0590                     	;# 
  1139  0591                     	;# 
  1140  0592                     	;# 
  1141  0592                     	;# 
  1142  0593                     	;# 
  1143  0594                     	;# 
  1144  0594                     	;# 
  1145  0595                     	;# 
  1146  0596                     	;# 
  1147  0596                     	;# 
  1148  0597                     	;# 
  1149  0598                     	;# 
  1150  0599                     	;# 
  1151  059A                     	;# 
  1152  059B                     	;# 
  1153  059B                     	;# 
  1154  059C                     	;# 
  1155  059D                     	;# 
  1156  060C                     	;# 
  1157  060C                     	;# 
  1158  060D                     	;# 
  1159  060E                     	;# 
  1160  060F                     	;# 
  1161  060F                     	;# 
  1162  0610                     	;# 
  1163  0611                     	;# 
  1164  0612                     	;# 
  1165  0613                     	;# 
  1166  0614                     	;# 
  1167  0617                     	;# 
  1168  0618                     	;# 
  1169  0619                     	;# 
  1170  061A                     	;# 
  1171  061B                     	;# 
  1172  061C                     	;# 
  1173  0691                     	;# 
  1174  0692                     	;# 
  1175  0693                     	;# 
  1176  0694                     	;# 
  1177  0695                     	;# 
  1178  0696                     	;# 
  1179  0697                     	;# 
  1180  0699                     	;# 
  1181  069A                     	;# 
  1182  0711                     	;# 
  1183  0712                     	;# 
  1184  0713                     	;# 
  1185  0714                     	;# 
  1186  0715                     	;# 
  1187  0718                     	;# 
  1188  0718                     	;# 
  1189  0719                     	;# 
  1190  071A                     	;# 
  1191  071A                     	;# 
  1192  071B                     	;# 
  1193  071C                     	;# 
  1194  071D                     	;# 
  1195  0791                     	;# 
  1196  0791                     	;# 
  1197  0792                     	;# 
  1198  0793                     	;# 
  1199  0793                     	;# 
  1200  0794                     	;# 
  1201  0795                     	;# 
  1202  0795                     	;# 
  1203  0796                     	;# 
  1204  0797                     	;# 
  1205  0797                     	;# 
  1206  0798                     	;# 
  1207  0799                     	;# 
  1208  079A                     	;# 
  1209  080C                     	;# 
  1210  080C                     	;# 
  1211  080D                     	;# 
  1212  080E                     	;# 
  1213  080E                     	;# 
  1214  080F                     	;# 
  1215  0810                     	;# 
  1216  0810                     	;# 
  1217  0811                     	;# 
  1218  0812                     	;# 
  1219  0812                     	;# 
  1220  0813                     	;# 
  1221  0814                     	;# 
  1222  0815                     	;# 
  1223  0816                     	;# 
  1224  0817                     	;# 
  1225  0818                     	;# 
  1226  0819                     	;# 
  1227  081A                     	;# 
  1228  081A                     	;# 
  1229  081B                     	;# 
  1230  081C                     	;# 
  1231  081C                     	;# 
  1232  081D                     	;# 
  1233  088C                     	;# 
  1234  088D                     	;# 
  1235  088E                     	;# 
  1236  088F                     	;# 
  1237  088F                     	;# 
  1238  0890                     	;# 
  1239  0891                     	;# 
  1240  0892                     	;# 
  1241  0893                     	;# 
  1242  0893                     	;# 
  1243  0894                     	;# 
  1244  0895                     	;# 
  1245  0896                     	;# 
  1246  0897                     	;# 
  1247  0897                     	;# 
  1248  0898                     	;# 
  1249  0899                     	;# 
  1250  0D8C                     	;# 
  1251  0D8C                     	;# 
  1252  0D8D                     	;# 
  1253  0D8E                     	;# 
  1254  0D8F                     	;# 
  1255  0D8F                     	;# 
  1256  0D90                     	;# 
  1257  0D91                     	;# 
  1258  0D92                     	;# 
  1259  0D92                     	;# 
  1260  0D93                     	;# 
  1261  0D94                     	;# 
  1262  0D95                     	;# 
  1263  0D95                     	;# 
  1264  0D96                     	;# 
  1265  0D97                     	;# 
  1266  0D98                     	;# 
  1267  0D99                     	;# 
  1268  0D9A                     	;# 
  1269  0D9B                     	;# 
  1270  0D9C                     	;# 
  1271  0D9D                     	;# 
  1272  0D9E                     	;# 
  1273  0D9E                     	;# 
  1274  0D9F                     	;# 
  1275  0DA0                     	;# 
  1276  0DA1                     	;# 
  1277  0DA1                     	;# 
  1278  0DA2                     	;# 
  1279  0DA3                     	;# 
  1280  0DA4                     	;# 
  1281  0DA4                     	;# 
  1282  0DA5                     	;# 
  1283  0DA6                     	;# 
  1284  0DA7                     	;# 
  1285  0DA7                     	;# 
  1286  0DA8                     	;# 
  1287  0DA9                     	;# 
  1288  0DAA                     	;# 
  1289  0DAB                     	;# 
  1290  0DAC                     	;# 
  1291  0DAD                     	;# 
  1292  0DAE                     	;# 
  1293  0DAF                     	;# 
  1294  0E0F                     	;# 
  1295  0E10                     	;# 
  1296  0E11                     	;# 
  1297  0E12                     	;# 
  1298  0E13                     	;# 
  1299  0E14                     	;# 
  1300  0E15                     	;# 
  1301  0E16                     	;# 
  1302  0E17                     	;# 
  1303  0E18                     	;# 
  1304  0E19                     	;# 
  1305  0E1A                     	;# 
  1306  0E1B                     	;# 
  1307  0E1C                     	;# 
  1308  0E1D                     	;# 
  1309  0E1E                     	;# 
  1310  0E1F                     	;# 
  1311  0E20                     	;# 
  1312  0E21                     	;# 
  1313  0E22                     	;# 
  1314  0E23                     	;# 
  1315  0E24                     	;# 
  1316  0E25                     	;# 
  1317  0E26                     	;# 
  1318  0E27                     	;# 
  1319  0E28                     	;# 
  1320  0E29                     	;# 
  1321  0E2A                     	;# 
  1322  0E2B                     	;# 
  1323  0E2C                     	;# 
  1324  0E2D                     	;# 
  1325  0E2E                     	;# 
  1326  0E90                     	;# 
  1327  0E91                     	;# 
  1328  0E92                     	;# 
  1329  0E94                     	;# 
  1330  0E95                     	;# 
  1331  0E9C                     	;# 
  1332  0E9D                     	;# 
  1333  0E9E                     	;# 
  1334  0E9F                     	;# 
  1335  0EA0                     	;# 
  1336  0EA1                     	;# 
  1337  0EA2                     	;# 
  1338  0EA3                     	;# 
  1339  0EA4                     	;# 
  1340  0EA5                     	;# 
  1341  0EA6                     	;# 
  1342  0EA7                     	;# 
  1343  0F0F                     	;# 
  1344  0F10                     	;# 
  1345  0F11                     	;# 
  1346  0F12                     	;# 
  1347  0F13                     	;# 
  1348  0F14                     	;# 
  1349  0F15                     	;# 
  1350  0F16                     	;# 
  1351  0F17                     	;# 
  1352  0F18                     	;# 
  1353  0F19                     	;# 
  1354  0F1A                     	;# 
  1355  0F1B                     	;# 
  1356  0F1C                     	;# 
  1357  0F1D                     	;# 
  1358  0F1E                     	;# 
  1359  0F1F                     	;# 
  1360  0F20                     	;# 
  1361  0F21                     	;# 
  1362  0F22                     	;# 
  1363  0F23                     	;# 
  1364  0F24                     	;# 
  1365  0F25                     	;# 
  1366  0F26                     	;# 
  1367  0F27                     	;# 
  1368  0F28                     	;# 
  1369  0F29                     	;# 
  1370  0F2A                     	;# 
  1371  0F2B                     	;# 
  1372  0F2C                     	;# 
  1373  0F2D                     	;# 
  1374  0F2E                     	;# 
  1375  0F2F                     	;# 
  1376  0F30                     	;# 
  1377  0F31                     	;# 
  1378  0F32                     	;# 
  1379  0F33                     	;# 
  1380  0F34                     	;# 
  1381  0F35                     	;# 
  1382  0F36                     	;# 
  1383  0F37                     	;# 
  1384  0FE4                     	;# 
  1385  0FE5                     	;# 
  1386  0FE6                     	;# 
  1387  0FE7                     	;# 
  1388  0FE8                     	;# 
  1389  0FE9                     	;# 
  1390  0FEA                     	;# 
  1391  0FEB                     	;# 
  1392  0FED                     	;# 
  1393  0FEE                     	;# 
  1394  0FEF                     	;# 
  1395  0000                     	;# 
  1396  0001                     	;# 
  1397  0002                     	;# 
  1398  0003                     	;# 
  1399  0004                     	;# 
  1400  0005                     	;# 
  1401  0006                     	;# 
  1402  0007                     	;# 
  1403  0008                     	;# 
  1404  0009                     	;# 
  1405  000A                     	;# 
  1406  000B                     	;# 
  1407  000C                     	;# 
  1408  000D                     	;# 
  1409  000E                     	;# 
  1410  0010                     	;# 
  1411  0011                     	;# 
  1412  0012                     	;# 
  1413  0013                     	;# 
  1414  0014                     	;# 
  1415  0015                     	;# 
  1416  0016                     	;# 
  1417  0016                     	;# 
  1418  0017                     	;# 
  1419  0018                     	;# 
  1420  0019                     	;# 
  1421  001A                     	;# 
  1422  001A                     	;# 
  1423  001B                     	;# 
  1424  001B                     	;# 
  1425  001C                     	;# 
  1426  001D                     	;# 
  1427  001E                     	;# 
  1428  001F                     	;# 
  1429  008C                     	;# 
  1430  008D                     	;# 
  1431  008E                     	;# 
  1432  0090                     	;# 
  1433  0091                     	;# 
  1434  0092                     	;# 
  1435  0093                     	;# 
  1436  0094                     	;# 
  1437  0095                     	;# 
  1438  0096                     	;# 
  1439  0098                     	;# 
  1440  0099                     	;# 
  1441  009A                     	;# 
  1442  009B                     	;# 
  1443  009B                     	;# 
  1444  009C                     	;# 
  1445  009D                     	;# 
  1446  009E                     	;# 
  1447  009F                     	;# 
  1448  010C                     	;# 
  1449  010D                     	;# 
  1450  010E                     	;# 
  1451  0111                     	;# 
  1452  0112                     	;# 
  1453  0113                     	;# 
  1454  0114                     	;# 
  1455  0115                     	;# 
  1456  0116                     	;# 
  1457  0117                     	;# 
  1458  0118                     	;# 
  1459  0119                     	;# 
  1460  011C                     	;# 
  1461  018C                     	;# 
  1462  018D                     	;# 
  1463  018E                     	;# 
  1464  0191                     	;# 
  1465  0191                     	;# 
  1466  0192                     	;# 
  1467  0193                     	;# 
  1468  0193                     	;# 
  1469  0194                     	;# 
  1470  0195                     	;# 
  1471  0196                     	;# 
  1472  0197                     	;# 
  1473  0199                     	;# 
  1474  0199                     	;# 
  1475  0199                     	;# 
  1476  019A                     	;# 
  1477  019A                     	;# 
  1478  019A                     	;# 
  1479  019B                     	;# 
  1480  019B                     	;# 
  1481  019B                     	;# 
  1482  019B                     	;# 
  1483  019B                     	;# 
  1484  019C                     	;# 
  1485  019C                     	;# 
  1486  019C                     	;# 
  1487  019D                     	;# 
  1488  019D                     	;# 
  1489  019D                     	;# 
  1490  019E                     	;# 
  1491  019E                     	;# 
  1492  019E                     	;# 
  1493  019F                     	;# 
  1494  019F                     	;# 
  1495  019F                     	;# 
  1496  019F                     	;# 
  1497  019F                     	;# 
  1498  020C                     	;# 
  1499  020D                     	;# 
  1500  020E                     	;# 
  1501  0211                     	;# 
  1502  0211                     	;# 
  1503  0212                     	;# 
  1504  0212                     	;# 
  1505  0213                     	;# 
  1506  0213                     	;# 
  1507  0214                     	;# 
  1508  0214                     	;# 
  1509  0215                     	;# 
  1510  0215                     	;# 
  1511  0215                     	;# 
  1512  0215                     	;# 
  1513  0216                     	;# 
  1514  0216                     	;# 
  1515  0217                     	;# 
  1516  0217                     	;# 
  1517  028C                     	;# 
  1518  028D                     	;# 
  1519  028E                     	;# 
  1520  0291                     	;# 
  1521  0291                     	;# 
  1522  0292                     	;# 
  1523  0293                     	;# 
  1524  0294                     	;# 
  1525  0298                     	;# 
  1526  0298                     	;# 
  1527  0299                     	;# 
  1528  029A                     	;# 
  1529  029B                     	;# 
  1530  029E                     	;# 
  1531  030C                     	;# 
  1532  030D                     	;# 
  1533  030E                     	;# 
  1534  038C                     	;# 
  1535  038D                     	;# 
  1536  038E                     	;# 
  1537  0391                     	;# 
  1538  0392                     	;# 
  1539  0393                     	;# 
  1540  0394                     	;# 
  1541  0395                     	;# 
  1542  0396                     	;# 
  1543  0397                     	;# 
  1544  0398                     	;# 
  1545  0399                     	;# 
  1546  040E                     	;# 
  1547  0413                     	;# 
  1548  0413                     	;# 
  1549  0414                     	;# 
  1550  0414                     	;# 
  1551  0415                     	;# 
  1552  0416                     	;# 
  1553  0417                     	;# 
  1554  0418                     	;# 
  1555  041A                     	;# 
  1556  041A                     	;# 
  1557  041B                     	;# 
  1558  041B                     	;# 
  1559  041C                     	;# 
  1560  041D                     	;# 
  1561  041E                     	;# 
  1562  041F                     	;# 
  1563  0493                     	;# 
  1564  0494                     	;# 
  1565  0495                     	;# 
  1566  0496                     	;# 
  1567  049A                     	;# 
  1568  049B                     	;# 
  1569  049C                     	;# 
  1570  049D                     	;# 
  1571  058C                     	;# 
  1572  058C                     	;# 
  1573  058D                     	;# 
  1574  058E                     	;# 
  1575  058E                     	;# 
  1576  058F                     	;# 
  1577  0590                     	;# 
  1578  0590                     	;# 
  1579  0591                     	;# 
  1580  0592                     	;# 
  1581  0592                     	;# 
  1582  0593                     	;# 
  1583  0594                     	;# 
  1584  0594                     	;# 
  1585  0595                     	;# 
  1586  0596                     	;# 
  1587  0596                     	;# 
  1588  0597                     	;# 
  1589  0598                     	;# 
  1590  0599                     	;# 
  1591  059A                     	;# 
  1592  059B                     	;# 
  1593  059B                     	;# 
  1594  059C                     	;# 
  1595  059D                     	;# 
  1596  060C                     	;# 
  1597  060C                     	;# 
  1598  060D                     	;# 
  1599  060E                     	;# 
  1600  060F                     	;# 
  1601  060F                     	;# 
  1602  0610                     	;# 
  1603  0611                     	;# 
  1604  0612                     	;# 
  1605  0613                     	;# 
  1606  0614                     	;# 
  1607  0617                     	;# 
  1608  0618                     	;# 
  1609  0619                     	;# 
  1610  061A                     	;# 
  1611  061B                     	;# 
  1612  061C                     	;# 
  1613  0691                     	;# 
  1614  0692                     	;# 
  1615  0693                     	;# 
  1616  0694                     	;# 
  1617  0695                     	;# 
  1618  0696                     	;# 
  1619  0697                     	;# 
  1620  0699                     	;# 
  1621  069A                     	;# 
  1622  0711                     	;# 
  1623  0712                     	;# 
  1624  0713                     	;# 
  1625  0714                     	;# 
  1626  0715                     	;# 
  1627  0718                     	;# 
  1628  0718                     	;# 
  1629  0719                     	;# 
  1630  071A                     	;# 
  1631  071A                     	;# 
  1632  071B                     	;# 
  1633  071C                     	;# 
  1634  071D                     	;# 
  1635  0791                     	;# 
  1636  0791                     	;# 
  1637  0792                     	;# 
  1638  0793                     	;# 
  1639  0793                     	;# 
  1640  0794                     	;# 
  1641  0795                     	;# 
  1642  0795                     	;# 
  1643  0796                     	;# 
  1644  0797                     	;# 
  1645  0797                     	;# 
  1646  0798                     	;# 
  1647  0799                     	;# 
  1648  079A                     	;# 
  1649  080C                     	;# 
  1650  080C                     	;# 
  1651  080D                     	;# 
  1652  080E                     	;# 
  1653  080E                     	;# 
  1654  080F                     	;# 
  1655  0810                     	;# 
  1656  0810                     	;# 
  1657  0811                     	;# 
  1658  0812                     	;# 
  1659  0812                     	;# 
  1660  0813                     	;# 
  1661  0814                     	;# 
  1662  0815                     	;# 
  1663  0816                     	;# 
  1664  0817                     	;# 
  1665  0818                     	;# 
  1666  0819                     	;# 
  1667  081A                     	;# 
  1668  081A                     	;# 
  1669  081B                     	;# 
  1670  081C                     	;# 
  1671  081C                     	;# 
  1672  081D                     	;# 
  1673  088C                     	;# 
  1674  088D                     	;# 
  1675  088E                     	;# 
  1676  088F                     	;# 
  1677  088F                     	;# 
  1678  0890                     	;# 
  1679  0891                     	;# 
  1680  0892                     	;# 
  1681  0893                     	;# 
  1682  0893                     	;# 
  1683  0894                     	;# 
  1684  0895                     	;# 
  1685  0896                     	;# 
  1686  0897                     	;# 
  1687  0897                     	;# 
  1688  0898                     	;# 
  1689  0899                     	;# 
  1690  0D8C                     	;# 
  1691  0D8C                     	;# 
  1692  0D8D                     	;# 
  1693  0D8E                     	;# 
  1694  0D8F                     	;# 
  1695  0D8F                     	;# 
  1696  0D90                     	;# 
  1697  0D91                     	;# 
  1698  0D92                     	;# 
  1699  0D92                     	;# 
  1700  0D93                     	;# 
  1701  0D94                     	;# 
  1702  0D95                     	;# 
  1703  0D95                     	;# 
  1704  0D96                     	;# 
  1705  0D97                     	;# 
  1706  0D98                     	;# 
  1707  0D99                     	;# 
  1708  0D9A                     	;# 
  1709  0D9B                     	;# 
  1710  0D9C                     	;# 
  1711  0D9D                     	;# 
  1712  0D9E                     	;# 
  1713  0D9E                     	;# 
  1714  0D9F                     	;# 
  1715  0DA0                     	;# 
  1716  0DA1                     	;# 
  1717  0DA1                     	;# 
  1718  0DA2                     	;# 
  1719  0DA3                     	;# 
  1720  0DA4                     	;# 
  1721  0DA4                     	;# 
  1722  0DA5                     	;# 
  1723  0DA6                     	;# 
  1724  0DA7                     	;# 
  1725  0DA7                     	;# 
  1726  0DA8                     	;# 
  1727  0DA9                     	;# 
  1728  0DAA                     	;# 
  1729  0DAB                     	;# 
  1730  0DAC                     	;# 
  1731  0DAD                     	;# 
  1732  0DAE                     	;# 
  1733  0DAF                     	;# 
  1734  0E0F                     	;# 
  1735  0E10                     	;# 
  1736  0E11                     	;# 
  1737  0E12                     	;# 
  1738  0E13                     	;# 
  1739  0E14                     	;# 
  1740  0E15                     	;# 
  1741  0E16                     	;# 
  1742  0E17                     	;# 
  1743  0E18                     	;# 
  1744  0E19                     	;# 
  1745  0E1A                     	;# 
  1746  0E1B                     	;# 
  1747  0E1C                     	;# 
  1748  0E1D                     	;# 
  1749  0E1E                     	;# 
  1750  0E1F                     	;# 
  1751  0E20                     	;# 
  1752  0E21                     	;# 
  1753  0E22                     	;# 
  1754  0E23                     	;# 
  1755  0E24                     	;# 
  1756  0E25                     	;# 
  1757  0E26                     	;# 
  1758  0E27                     	;# 
  1759  0E28                     	;# 
  1760  0E29                     	;# 
  1761  0E2A                     	;# 
  1762  0E2B                     	;# 
  1763  0E2C                     	;# 
  1764  0E2D                     	;# 
  1765  0E2E                     	;# 
  1766  0E90                     	;# 
  1767  0E91                     	;# 
  1768  0E92                     	;# 
  1769  0E94                     	;# 
  1770  0E95                     	;# 
  1771  0E9C                     	;# 
  1772  0E9D                     	;# 
  1773  0E9E                     	;# 
  1774  0E9F                     	;# 
  1775  0EA0                     	;# 
  1776  0EA1                     	;# 
  1777  0EA2                     	;# 
  1778  0EA3                     	;# 
  1779  0EA4                     	;# 
  1780  0EA5                     	;# 
  1781  0EA6                     	;# 
  1782  0EA7                     	;# 
  1783  0F0F                     	;# 
  1784  0F10                     	;# 
  1785  0F11                     	;# 
  1786  0F12                     	;# 
  1787  0F13                     	;# 
  1788  0F14                     	;# 
  1789  0F15                     	;# 
  1790  0F16                     	;# 
  1791  0F17                     	;# 
  1792  0F18                     	;# 
  1793  0F19                     	;# 
  1794  0F1A                     	;# 
  1795  0F1B                     	;# 
  1796  0F1C                     	;# 
  1797  0F1D                     	;# 
  1798  0F1E                     	;# 
  1799  0F1F                     	;# 
  1800  0F20                     	;# 
  1801  0F21                     	;# 
  1802  0F22                     	;# 
  1803  0F23                     	;# 
  1804  0F24                     	;# 
  1805  0F25                     	;# 
  1806  0F26                     	;# 
  1807  0F27                     	;# 
  1808  0F28                     	;# 
  1809  0F29                     	;# 
  1810  0F2A                     	;# 
  1811  0F2B                     	;# 
  1812  0F2C                     	;# 
  1813  0F2D                     	;# 
  1814  0F2E                     	;# 
  1815  0F2F                     	;# 
  1816  0F30                     	;# 
  1817  0F31                     	;# 
  1818  0F32                     	;# 
  1819  0F33                     	;# 
  1820  0F34                     	;# 
  1821  0F35                     	;# 
  1822  0F36                     	;# 
  1823  0F37                     	;# 
  1824  0FE4                     	;# 
  1825  0FE5                     	;# 
  1826  0FE6                     	;# 
  1827  0FE7                     	;# 
  1828  0FE8                     	;# 
  1829  0FE9                     	;# 
  1830  0FEA                     	;# 
  1831  0FEB                     	;# 
  1832  0FED                     	;# 
  1833  0FEE                     	;# 
  1834  0FEF                     	;# 
  1835  0000                     	;# 
  1836  0001                     	;# 
  1837  0002                     	;# 
  1838  0003                     	;# 
  1839  0004                     	;# 
  1840  0005                     	;# 
  1841  0006                     	;# 
  1842  0007                     	;# 
  1843  0008                     	;# 
  1844  0009                     	;# 
  1845  000A                     	;# 
  1846  000B                     	;# 
  1847  000C                     	;# 
  1848  000D                     	;# 
  1849  000E                     	;# 
  1850  0010                     	;# 
  1851  0011                     	;# 
  1852  0012                     	;# 
  1853  0013                     	;# 
  1854  0014                     	;# 
  1855  0015                     	;# 
  1856  0016                     	;# 
  1857  0016                     	;# 
  1858  0017                     	;# 
  1859  0018                     	;# 
  1860  0019                     	;# 
  1861  001A                     	;# 
  1862  001A                     	;# 
  1863  001B                     	;# 
  1864  001B                     	;# 
  1865  001C                     	;# 
  1866  001D                     	;# 
  1867  001E                     	;# 
  1868  001F                     	;# 
  1869  008C                     	;# 
  1870  008D                     	;# 
  1871  008E                     	;# 
  1872  0090                     	;# 
  1873  0091                     	;# 
  1874  0092                     	;# 
  1875  0093                     	;# 
  1876  0094                     	;# 
  1877  0095                     	;# 
  1878  0096                     	;# 
  1879  0098                     	;# 
  1880  0099                     	;# 
  1881  009A                     	;# 
  1882  009B                     	;# 
  1883  009B                     	;# 
  1884  009C                     	;# 
  1885  009D                     	;# 
  1886  009E                     	;# 
  1887  009F                     	;# 
  1888  010C                     	;# 
  1889  010D                     	;# 
  1890  010E                     	;# 
  1891  0111                     	;# 
  1892  0112                     	;# 
  1893  0113                     	;# 
  1894  0114                     	;# 
  1895  0115                     	;# 
  1896  0116                     	;# 
  1897  0117                     	;# 
  1898  0118                     	;# 
  1899  0119                     	;# 
  1900  011C                     	;# 
  1901  018C                     	;# 
  1902  018D                     	;# 
  1903  018E                     	;# 
  1904  0191                     	;# 
  1905  0191                     	;# 
  1906  0192                     	;# 
  1907  0193                     	;# 
  1908  0193                     	;# 
  1909  0194                     	;# 
  1910  0195                     	;# 
  1911  0196                     	;# 
  1912  0197                     	;# 
  1913  0199                     	;# 
  1914  0199                     	;# 
  1915  0199                     	;# 
  1916  019A                     	;# 
  1917  019A                     	;# 
  1918  019A                     	;# 
  1919  019B                     	;# 
  1920  019B                     	;# 
  1921  019B                     	;# 
  1922  019B                     	;# 
  1923  019B                     	;# 
  1924  019C                     	;# 
  1925  019C                     	;# 
  1926  019C                     	;# 
  1927  019D                     	;# 
  1928  019D                     	;# 
  1929  019D                     	;# 
  1930  019E                     	;# 
  1931  019E                     	;# 
  1932  019E                     	;# 
  1933  019F                     	;# 
  1934  019F                     	;# 
  1935  019F                     	;# 
  1936  019F                     	;# 
  1937  019F                     	;# 
  1938  020C                     	;# 
  1939  020D                     	;# 
  1940  020E                     	;# 
  1941  0211                     	;# 
  1942  0211                     	;# 
  1943  0212                     	;# 
  1944  0212                     	;# 
  1945  0213                     	;# 
  1946  0213                     	;# 
  1947  0214                     	;# 
  1948  0214                     	;# 
  1949  0215                     	;# 
  1950  0215                     	;# 
  1951  0215                     	;# 
  1952  0215                     	;# 
  1953  0216                     	;# 
  1954  0216                     	;# 
  1955  0217                     	;# 
  1956  0217                     	;# 
  1957  028C                     	;# 
  1958  028D                     	;# 
  1959  028E                     	;# 
  1960  0291                     	;# 
  1961  0291                     	;# 
  1962  0292                     	;# 
  1963  0293                     	;# 
  1964  0294                     	;# 
  1965  0298                     	;# 
  1966  0298                     	;# 
  1967  0299                     	;# 
  1968  029A                     	;# 
  1969  029B                     	;# 
  1970  029E                     	;# 
  1971  030C                     	;# 
  1972  030D                     	;# 
  1973  030E                     	;# 
  1974  038C                     	;# 
  1975  038D                     	;# 
  1976  038E                     	;# 
  1977  0391                     	;# 
  1978  0392                     	;# 
  1979  0393                     	;# 
  1980  0394                     	;# 
  1981  0395                     	;# 
  1982  0396                     	;# 
  1983  0397                     	;# 
  1984  0398                     	;# 
  1985  0399                     	;# 
  1986  040E                     	;# 
  1987  0413                     	;# 
  1988  0413                     	;# 
  1989  0414                     	;# 
  1990  0414                     	;# 
  1991  0415                     	;# 
  1992  0416                     	;# 
  1993  0417                     	;# 
  1994  0418                     	;# 
  1995  041A                     	;# 
  1996  041A                     	;# 
  1997  041B                     	;# 
  1998  041B                     	;# 
  1999  041C                     	;# 
  2000  041D                     	;# 
  2001  041E                     	;# 
  2002  041F                     	;# 
  2003  0493                     	;# 
  2004  0494                     	;# 
  2005  0495                     	;# 
  2006  0496                     	;# 
  2007  049A                     	;# 
  2008  049B                     	;# 
  2009  049C                     	;# 
  2010  049D                     	;# 
  2011  058C                     	;# 
  2012  058C                     	;# 
  2013  058D                     	;# 
  2014  058E                     	;# 
  2015  058E                     	;# 
  2016  058F                     	;# 
  2017  0590                     	;# 
  2018  0590                     	;# 
  2019  0591                     	;# 
  2020  0592                     	;# 
  2021  0592                     	;# 
  2022  0593                     	;# 
  2023  0594                     	;# 
  2024  0594                     	;# 
  2025  0595                     	;# 
  2026  0596                     	;# 
  2027  0596                     	;# 
  2028  0597                     	;# 
  2029  0598                     	;# 
  2030  0599                     	;# 
  2031  059A                     	;# 
  2032  059B                     	;# 
  2033  059B                     	;# 
  2034  059C                     	;# 
  2035  059D                     	;# 
  2036  060C                     	;# 
  2037  060C                     	;# 
  2038  060D                     	;# 
  2039  060E                     	;# 
  2040  060F                     	;# 
  2041  060F                     	;# 
  2042  0610                     	;# 
  2043  0611                     	;# 
  2044  0612                     	;# 
  2045  0613                     	;# 
  2046  0614                     	;# 
  2047  0617                     	;# 
  2048  0618                     	;# 
  2049  0619                     	;# 
  2050  061A                     	;# 
  2051  061B                     	;# 
  2052  061C                     	;# 
  2053  0691                     	;# 
  2054  0692                     	;# 
  2055  0693                     	;# 
  2056  0694                     	;# 
  2057  0695                     	;# 
  2058  0696                     	;# 
  2059  0697                     	;# 
  2060  0699                     	;# 
  2061  069A                     	;# 
  2062  0711                     	;# 
  2063  0712                     	;# 
  2064  0713                     	;# 
  2065  0714                     	;# 
  2066  0715                     	;# 
  2067  0718                     	;# 
  2068  0718                     	;# 
  2069  0719                     	;# 
  2070  071A                     	;# 
  2071  071A                     	;# 
  2072  071B                     	;# 
  2073  071C                     	;# 
  2074  071D                     	;# 
  2075  0791                     	;# 
  2076  0791                     	;# 
  2077  0792                     	;# 
  2078  0793                     	;# 
  2079  0793                     	;# 
  2080  0794                     	;# 
  2081  0795                     	;# 
  2082  0795                     	;# 
  2083  0796                     	;# 
  2084  0797                     	;# 
  2085  0797                     	;# 
  2086  0798                     	;# 
  2087  0799                     	;# 
  2088  079A                     	;# 
  2089  080C                     	;# 
  2090  080C                     	;# 
  2091  080D                     	;# 
  2092  080E                     	;# 
  2093  080E                     	;# 
  2094  080F                     	;# 
  2095  0810                     	;# 
  2096  0810                     	;# 
  2097  0811                     	;# 
  2098  0812                     	;# 
  2099  0812                     	;# 
  2100  0813                     	;# 
  2101  0814                     	;# 
  2102  0815                     	;# 
  2103  0816                     	;# 
  2104  0817                     	;# 
  2105  0818                     	;# 
  2106  0819                     	;# 
  2107  081A                     	;# 
  2108  081A                     	;# 
  2109  081B                     	;# 
  2110  081C                     	;# 
  2111  081C                     	;# 
  2112  081D                     	;# 
  2113  088C                     	;# 
  2114  088D                     	;# 
  2115  088E                     	;# 
  2116  088F                     	;# 
  2117  088F                     	;# 
  2118  0890                     	;# 
  2119  0891                     	;# 
  2120  0892                     	;# 
  2121  0893                     	;# 
  2122  0893                     	;# 
  2123  0894                     	;# 
  2124  0895                     	;# 
  2125  0896                     	;# 
  2126  0897                     	;# 
  2127  0897                     	;# 
  2128  0898                     	;# 
  2129  0899                     	;# 
  2130  0D8C                     	;# 
  2131  0D8C                     	;# 
  2132  0D8D                     	;# 
  2133  0D8E                     	;# 
  2134  0D8F                     	;# 
  2135  0D8F                     	;# 
  2136  0D90                     	;# 
  2137  0D91                     	;# 
  2138  0D92                     	;# 
  2139  0D92                     	;# 
  2140  0D93                     	;# 
  2141  0D94                     	;# 
  2142  0D95                     	;# 
  2143  0D95                     	;# 
  2144  0D96                     	;# 
  2145  0D97                     	;# 
  2146  0D98                     	;# 
  2147  0D99                     	;# 
  2148  0D9A                     	;# 
  2149  0D9B                     	;# 
  2150  0D9C                     	;# 
  2151  0D9D                     	;# 
  2152  0D9E                     	;# 
  2153  0D9E                     	;# 
  2154  0D9F                     	;# 
  2155  0DA0                     	;# 
  2156  0DA1                     	;# 
  2157  0DA1                     	;# 
  2158  0DA2                     	;# 
  2159  0DA3                     	;# 
  2160  0DA4                     	;# 
  2161  0DA4                     	;# 
  2162  0DA5                     	;# 
  2163  0DA6                     	;# 
  2164  0DA7                     	;# 
  2165  0DA7                     	;# 
  2166  0DA8                     	;# 
  2167  0DA9                     	;# 
  2168  0DAA                     	;# 
  2169  0DAB                     	;# 
  2170  0DAC                     	;# 
  2171  0DAD                     	;# 
  2172  0DAE                     	;# 
  2173  0DAF                     	;# 
  2174  0E0F                     	;# 
  2175  0E10                     	;# 
  2176  0E11                     	;# 
  2177  0E12                     	;# 
  2178  0E13                     	;# 
  2179  0E14                     	;# 
  2180  0E15                     	;# 
  2181  0E16                     	;# 
  2182  0E17                     	;# 
  2183  0E18                     	;# 
  2184  0E19                     	;# 
  2185  0E1A                     	;# 
  2186  0E1B                     	;# 
  2187  0E1C                     	;# 
  2188  0E1D                     	;# 
  2189  0E1E                     	;# 
  2190  0E1F                     	;# 
  2191  0E20                     	;# 
  2192  0E21                     	;# 
  2193  0E22                     	;# 
  2194  0E23                     	;# 
  2195  0E24                     	;# 
  2196  0E25                     	;# 
  2197  0E26                     	;# 
  2198  0E27                     	;# 
  2199  0E28                     	;# 
  2200  0E29                     	;# 
  2201  0E2A                     	;# 
  2202  0E2B                     	;# 
  2203  0E2C                     	;# 
  2204  0E2D                     	;# 
  2205  0E2E                     	;# 
  2206  0E90                     	;# 
  2207  0E91                     	;# 
  2208  0E92                     	;# 
  2209  0E94                     	;# 
  2210  0E95                     	;# 
  2211  0E9C                     	;# 
  2212  0E9D                     	;# 
  2213  0E9E                     	;# 
  2214  0E9F                     	;# 
  2215  0EA0                     	;# 
  2216  0EA1                     	;# 
  2217  0EA2                     	;# 
  2218  0EA3                     	;# 
  2219  0EA4                     	;# 
  2220  0EA5                     	;# 
  2221  0EA6                     	;# 
  2222  0EA7                     	;# 
  2223  0F0F                     	;# 
  2224  0F10                     	;# 
  2225  0F11                     	;# 
  2226  0F12                     	;# 
  2227  0F13                     	;# 
  2228  0F14                     	;# 
  2229  0F15                     	;# 
  2230  0F16                     	;# 
  2231  0F17                     	;# 
  2232  0F18                     	;# 
  2233  0F19                     	;# 
  2234  0F1A                     	;# 
  2235  0F1B                     	;# 
  2236  0F1C                     	;# 
  2237  0F1D                     	;# 
  2238  0F1E                     	;# 
  2239  0F1F                     	;# 
  2240  0F20                     	;# 
  2241  0F21                     	;# 
  2242  0F22                     	;# 
  2243  0F23                     	;# 
  2244  0F24                     	;# 
  2245  0F25                     	;# 
  2246  0F26                     	;# 
  2247  0F27                     	;# 
  2248  0F28                     	;# 
  2249  0F29                     	;# 
  2250  0F2A                     	;# 
  2251  0F2B                     	;# 
  2252  0F2C                     	;# 
  2253  0F2D                     	;# 
  2254  0F2E                     	;# 
  2255  0F2F                     	;# 
  2256  0F30                     	;# 
  2257  0F31                     	;# 
  2258  0F32                     	;# 
  2259  0F33                     	;# 
  2260  0F34                     	;# 
  2261  0F35                     	;# 
  2262  0F36                     	;# 
  2263  0F37                     	;# 
  2264  0FE4                     	;# 
  2265  0FE5                     	;# 
  2266  0FE6                     	;# 
  2267  0FE7                     	;# 
  2268  0FE8                     	;# 
  2269  0FE9                     	;# 
  2270  0FEA                     	;# 
  2271  0FEB                     	;# 
  2272  0FED                     	;# 
  2273  0FEE                     	;# 
  2274  0FEF                     	;# 
  2275  0000                     	;# 
  2276  0001                     	;# 
  2277  0002                     	;# 
  2278  0003                     	;# 
  2279  0004                     	;# 
  2280  0005                     	;# 
  2281  0006                     	;# 
  2282  0007                     	;# 
  2283  0008                     	;# 
  2284  0009                     	;# 
  2285  000A                     	;# 
  2286  000B                     	;# 
  2287  000C                     	;# 
  2288  000D                     	;# 
  2289  000E                     	;# 
  2290  0010                     	;# 
  2291  0011                     	;# 
  2292  0012                     	;# 
  2293  0013                     	;# 
  2294  0014                     	;# 
  2295  0015                     	;# 
  2296  0016                     	;# 
  2297  0016                     	;# 
  2298  0017                     	;# 
  2299  0018                     	;# 
  2300  0019                     	;# 
  2301  001A                     	;# 
  2302  001A                     	;# 
  2303  001B                     	;# 
  2304  001B                     	;# 
  2305  001C                     	;# 
  2306  001D                     	;# 
  2307  001E                     	;# 
  2308  001F                     	;# 
  2309  008C                     	;# 
  2310  008D                     	;# 
  2311  008E                     	;# 
  2312  0090                     	;# 
  2313  0091                     	;# 
  2314  0092                     	;# 
  2315  0093                     	;# 
  2316  0094                     	;# 
  2317  0095                     	;# 
  2318  0096                     	;# 
  2319  0098                     	;# 
  2320  0099                     	;# 
  2321  009A                     	;# 
  2322  009B                     	;# 
  2323  009B                     	;# 
  2324  009C                     	;# 
  2325  009D                     	;# 
  2326  009E                     	;# 
  2327  009F                     	;# 
  2328  010C                     	;# 
  2329  010D                     	;# 
  2330  010E                     	;# 
  2331  0111                     	;# 
  2332  0112                     	;# 
  2333  0113                     	;# 
  2334  0114                     	;# 
  2335  0115                     	;# 
  2336  0116                     	;# 
  2337  0117                     	;# 
  2338  0118                     	;# 
  2339  0119                     	;# 
  2340  011C                     	;# 
  2341  018C                     	;# 
  2342  018D                     	;# 
  2343  018E                     	;# 
  2344  0191                     	;# 
  2345  0191                     	;# 
  2346  0192                     	;# 
  2347  0193                     	;# 
  2348  0193                     	;# 
  2349  0194                     	;# 
  2350  0195                     	;# 
  2351  0196                     	;# 
  2352  0197                     	;# 
  2353  0199                     	;# 
  2354  0199                     	;# 
  2355  0199                     	;# 
  2356  019A                     	;# 
  2357  019A                     	;# 
  2358  019A                     	;# 
  2359  019B                     	;# 
  2360  019B                     	;# 
  2361  019B                     	;# 
  2362  019B                     	;# 
  2363  019B                     	;# 
  2364  019C                     	;# 
  2365  019C                     	;# 
  2366  019C                     	;# 
  2367  019D                     	;# 
  2368  019D                     	;# 
  2369  019D                     	;# 
  2370  019E                     	;# 
  2371  019E                     	;# 
  2372  019E                     	;# 
  2373  019F                     	;# 
  2374  019F                     	;# 
  2375  019F                     	;# 
  2376  019F                     	;# 
  2377  019F                     	;# 
  2378  020C                     	;# 
  2379  020D                     	;# 
  2380  020E                     	;# 
  2381  0211                     	;# 
  2382  0211                     	;# 
  2383  0212                     	;# 
  2384  0212                     	;# 
  2385  0213                     	;# 
  2386  0213                     	;# 
  2387  0214                     	;# 
  2388  0214                     	;# 
  2389  0215                     	;# 
  2390  0215                     	;# 
  2391  0215                     	;# 
  2392  0215                     	;# 
  2393  0216                     	;# 
  2394  0216                     	;# 
  2395  0217                     	;# 
  2396  0217                     	;# 
  2397  028C                     	;# 
  2398  028D                     	;# 
  2399  028E                     	;# 
  2400  0291                     	;# 
  2401  0291                     	;# 
  2402  0292                     	;# 
  2403  0293                     	;# 
  2404  0294                     	;# 
  2405  0298                     	;# 
  2406  0298                     	;# 
  2407  0299                     	;# 
  2408  029A                     	;# 
  2409  029B                     	;# 
  2410  029E                     	;# 
  2411  030C                     	;# 
  2412  030D                     	;# 
  2413  030E                     	;# 
  2414  038C                     	;# 
  2415  038D                     	;# 
  2416  038E                     	;# 
  2417  0391                     	;# 
  2418  0392                     	;# 
  2419  0393                     	;# 
  2420  0394                     	;# 
  2421  0395                     	;# 
  2422  0396                     	;# 
  2423  0397                     	;# 
  2424  0398                     	;# 
  2425  0399                     	;# 
  2426  040E                     	;# 
  2427  0413                     	;# 
  2428  0413                     	;# 
  2429  0414                     	;# 
  2430  0414                     	;# 
  2431  0415                     	;# 
  2432  0416                     	;# 
  2433  0417                     	;# 
  2434  0418                     	;# 
  2435  041A                     	;# 
  2436  041A                     	;# 
  2437  041B                     	;# 
  2438  041B                     	;# 
  2439  041C                     	;# 
  2440  041D                     	;# 
  2441  041E                     	;# 
  2442  041F                     	;# 
  2443  0493                     	;# 
  2444  0494                     	;# 
  2445  0495                     	;# 
  2446  0496                     	;# 
  2447  049A                     	;# 
  2448  049B                     	;# 
  2449  049C                     	;# 
  2450  049D                     	;# 
  2451  058C                     	;# 
  2452  058C                     	;# 
  2453  058D                     	;# 
  2454  058E                     	;# 
  2455  058E                     	;# 
  2456  058F                     	;# 
  2457  0590                     	;# 
  2458  0590                     	;# 
  2459  0591                     	;# 
  2460  0592                     	;# 
  2461  0592                     	;# 
  2462  0593                     	;# 
  2463  0594                     	;# 
  2464  0594                     	;# 
  2465  0595                     	;# 
  2466  0596                     	;# 
  2467  0596                     	;# 
  2468  0597                     	;# 
  2469  0598                     	;# 
  2470  0599                     	;# 
  2471  059A                     	;# 
  2472  059B                     	;# 
  2473  059B                     	;# 
  2474  059C                     	;# 
  2475  059D                     	;# 
  2476  060C                     	;# 
  2477  060C                     	;# 
  2478  060D                     	;# 
  2479  060E                     	;# 
  2480  060F                     	;# 
  2481  060F                     	;# 
  2482  0610                     	;# 
  2483  0611                     	;# 
  2484  0612                     	;# 
  2485  0613                     	;# 
  2486  0614                     	;# 
  2487  0617                     	;# 
  2488  0618                     	;# 
  2489  0619                     	;# 
  2490  061A                     	;# 
  2491  061B                     	;# 
  2492  061C                     	;# 
  2493  0691                     	;# 
  2494  0692                     	;# 
  2495  0693                     	;# 
  2496  0694                     	;# 
  2497  0695                     	;# 
  2498  0696                     	;# 
  2499  0697                     	;# 
  2500  0699                     	;# 
  2501  069A                     	;# 
  2502  0711                     	;# 
  2503  0712                     	;# 
  2504  0713                     	;# 
  2505  0714                     	;# 
  2506  0715                     	;# 
  2507  0718                     	;# 
  2508  0718                     	;# 
  2509  0719                     	;# 
  2510  071A                     	;# 
  2511  071A                     	;# 
  2512  071B                     	;# 
  2513  071C                     	;# 
  2514  071D                     	;# 
  2515  0791                     	;# 
  2516  0791                     	;# 
  2517  0792                     	;# 
  2518  0793                     	;# 
  2519  0793                     	;# 
  2520  0794                     	;# 
  2521  0795                     	;# 
  2522  0795                     	;# 
  2523  0796                     	;# 
  2524  0797                     	;# 
  2525  0797                     	;# 
  2526  0798                     	;# 
  2527  0799                     	;# 
  2528  079A                     	;# 
  2529  080C                     	;# 
  2530  080C                     	;# 
  2531  080D                     	;# 
  2532  080E                     	;# 
  2533  080E                     	;# 
  2534  080F                     	;# 
  2535  0810                     	;# 
  2536  0810                     	;# 
  2537  0811                     	;# 
  2538  0812                     	;# 
  2539  0812                     	;# 
  2540  0813                     	;# 
  2541  0814                     	;# 
  2542  0815                     	;# 
  2543  0816                     	;# 
  2544  0817                     	;# 
  2545  0818                     	;# 
  2546  0819                     	;# 
  2547  081A                     	;# 
  2548  081A                     	;# 
  2549  081B                     	;# 
  2550  081C                     	;# 
  2551  081C                     	;# 
  2552  081D                     	;# 
  2553  088C                     	;# 
  2554  088D                     	;# 
  2555  088E                     	;# 
  2556  088F                     	;# 
  2557  088F                     	;# 
  2558  0890                     	;# 
  2559  0891                     	;# 
  2560  0892                     	;# 
  2561  0893                     	;# 
  2562  0893                     	;# 
  2563  0894                     	;# 
  2564  0895                     	;# 
  2565  0896                     	;# 
  2566  0897                     	;# 
  2567  0897                     	;# 
  2568  0898                     	;# 
  2569  0899                     	;# 
  2570  0D8C                     	;# 
  2571  0D8C                     	;# 
  2572  0D8D                     	;# 
  2573  0D8E                     	;# 
  2574  0D8F                     	;# 
  2575  0D8F                     	;# 
  2576  0D90                     	;# 
  2577  0D91                     	;# 
  2578  0D92                     	;# 
  2579  0D92                     	;# 
  2580  0D93                     	;# 
  2581  0D94                     	;# 
  2582  0D95                     	;# 
  2583  0D95                     	;# 
  2584  0D96                     	;# 
  2585  0D97                     	;# 
  2586  0D98                     	;# 
  2587  0D99                     	;# 
  2588  0D9A                     	;# 
  2589  0D9B                     	;# 
  2590  0D9C                     	;# 
  2591  0D9D                     	;# 
  2592  0D9E                     	;# 
  2593  0D9E                     	;# 
  2594  0D9F                     	;# 
  2595  0DA0                     	;# 
  2596  0DA1                     	;# 
  2597  0DA1                     	;# 
  2598  0DA2                     	;# 
  2599  0DA3                     	;# 
  2600  0DA4                     	;# 
  2601  0DA4                     	;# 
  2602  0DA5                     	;# 
  2603  0DA6                     	;# 
  2604  0DA7                     	;# 
  2605  0DA7                     	;# 
  2606  0DA8                     	;# 
  2607  0DA9                     	;# 
  2608  0DAA                     	;# 
  2609  0DAB                     	;# 
  2610  0DAC                     	;# 
  2611  0DAD                     	;# 
  2612  0DAE                     	;# 
  2613  0DAF                     	;# 
  2614  0E0F                     	;# 
  2615  0E10                     	;# 
  2616  0E11                     	;# 
  2617  0E12                     	;# 
  2618  0E13                     	;# 
  2619  0E14                     	;# 
  2620  0E15                     	;# 
  2621  0E16                     	;# 
  2622  0E17                     	;# 
  2623  0E18                     	;# 
  2624  0E19                     	;# 
  2625  0E1A                     	;# 
  2626  0E1B                     	;# 
  2627  0E1C                     	;# 
  2628  0E1D                     	;# 
  2629  0E1E                     	;# 
  2630  0E1F                     	;# 
  2631  0E20                     	;# 
  2632  0E21                     	;# 
  2633  0E22                     	;# 
  2634  0E23                     	;# 
  2635  0E24                     	;# 
  2636  0E25                     	;# 
  2637  0E26                     	;# 
  2638  0E27                     	;# 
  2639  0E28                     	;# 
  2640  0E29                     	;# 
  2641  0E2A                     	;# 
  2642  0E2B                     	;# 
  2643  0E2C                     	;# 
  2644  0E2D                     	;# 
  2645  0E2E                     	;# 
  2646  0E90                     	;# 
  2647  0E91                     	;# 
  2648  0E92                     	;# 
  2649  0E94                     	;# 
  2650  0E95                     	;# 
  2651  0E9C                     	;# 
  2652  0E9D                     	;# 
  2653  0E9E                     	;# 
  2654  0E9F                     	;# 
  2655  0EA0                     	;# 
  2656  0EA1                     	;# 
  2657  0EA2                     	;# 
  2658  0EA3                     	;# 
  2659  0EA4                     	;# 
  2660  0EA5                     	;# 
  2661  0EA6                     	;# 
  2662  0EA7                     	;# 
  2663  0F0F                     	;# 
  2664  0F10                     	;# 
  2665  0F11                     	;# 
  2666  0F12                     	;# 
  2667  0F13                     	;# 
  2668  0F14                     	;# 
  2669  0F15                     	;# 
  2670  0F16                     	;# 
  2671  0F17                     	;# 
  2672  0F18                     	;# 
  2673  0F19                     	;# 
  2674  0F1A                     	;# 
  2675  0F1B                     	;# 
  2676  0F1C                     	;# 
  2677  0F1D                     	;# 
  2678  0F1E                     	;# 
  2679  0F1F                     	;# 
  2680  0F20                     	;# 
  2681  0F21                     	;# 
  2682  0F22                     	;# 
  2683  0F23                     	;# 
  2684  0F24                     	;# 
  2685  0F25                     	;# 
  2686  0F26                     	;# 
  2687  0F27                     	;# 
  2688  0F28                     	;# 
  2689  0F29                     	;# 
  2690  0F2A                     	;# 
  2691  0F2B                     	;# 
  2692  0F2C                     	;# 
  2693  0F2D                     	;# 
  2694  0F2E                     	;# 
  2695  0F2F                     	;# 
  2696  0F30                     	;# 
  2697  0F31                     	;# 
  2698  0F32                     	;# 
  2699  0F33                     	;# 
  2700  0F34                     	;# 
  2701  0F35                     	;# 
  2702  0F36                     	;# 
  2703  0F37                     	;# 
  2704  0FE4                     	;# 
  2705  0FE5                     	;# 
  2706  0FE6                     	;# 
  2707  0FE7                     	;# 
  2708  0FE8                     	;# 
  2709  0FE9                     	;# 
  2710  0FEA                     	;# 
  2711  0FEB                     	;# 
  2712  0FED                     	;# 
  2713  0FEE                     	;# 
  2714  0FEF                     	;# 
  2715                           
  2716                           	psect	nvBANK0
  2717  0066                     __pnvBANK0:	
  2718  0066                     _EUSART_RxDefaultInterruptHandler:	
  2719  0066                     	ds	2
  2720  0068                     _EUSART_TxDefaultInterruptHandler:	
  2721  0068                     	ds	2
  2722  006A                     _eusartTxBufferRemaining:	
  2723  006A                     	ds	1
  2724  0010                     _PIR1bits	set	16
  2725  000B                     _INTCONbits	set	11
  2726  0074                     _RC4	set	116
  2727  0065                     _RA5	set	101
  2728  0061                     _RA1	set	97
  2729  0062                     _RA2	set	98
  2730  0075                     _RC5	set	117
  2731  0095                     _OPTION_REGbits	set	149
  2732  008E                     _TRISC	set	142
  2733  008D                     _TRISB	set	141
  2734  008C                     _TRISA	set	140
  2735  0098                     _OSCTUNE	set	152
  2736  0099                     _OSCCON	set	153
  2737  0090                     _PIE1bits	set	144
  2738  010E                     _LATC	set	270
  2739  010D                     _LATB	set	269
  2740  010C                     _LATA	set	268
  2741  0116                     _BORCON	set	278
  2742  018C                     _ANSELA	set	396
  2743  018D                     _ANSELB	set	397
  2744  018E                     _ANSELC	set	398
  2745  0199                     _RC1REG	set	409
  2746  019D                     _RC1STAbits	set	413
  2747  019A                     _TX1REG	set	410
  2748  019E                     _TX1STAbits	set	414
  2749  019C                     _SPBRGH	set	412
  2750  019B                     _SPBRGL	set	411
  2751  019E                     _TX1STA	set	414
  2752  019D                     _RC1STA	set	413
  2753  019F                     _BAUD1CON	set	415
  2754  020E                     _WPUC	set	526
  2755  020C                     _WPUA	set	524
  2756  020D                     _WPUB	set	525
  2757  028E                     _ODCONC	set	654
  2758  028D                     _ODCONB	set	653
  2759  028C                     _ODCONA	set	652
  2760  0E24                     _RXPPS	set	3620
  2761  0E9F                     _RB7PPS	set	3743
  2762                           
  2763                           ; #config settings
  2764  0000                     
  2765                           	psect	cinit
  2766  0029                     start_initialization:	
  2767  0029                     __initialization:	
  2768                           
  2769                           ; Clear objects allocated to COMMON
  2770  0029  01FA               	clrf	__pbssCOMMON& (0+127)
  2771  002A  01FB               	clrf	(__pbssCOMMON+1)& (0+127)
  2772                           
  2773                           ; Clear objects allocated to BANK0
  2774  002B  0020               	movlb	0	; select bank0
  2775  002C  01EB               	clrf	__pbssBANK0& (0+127)
  2776  002D  01EC               	clrf	(__pbssBANK0+1)& (0+127)
  2777  002E  01ED               	clrf	(__pbssBANK0+2)& (0+127)
  2778  002F  01EE               	clrf	(__pbssBANK0+3)& (0+127)
  2779  0030  01EF               	clrf	(__pbssBANK0+4)& (0+127)
  2780                           
  2781                           ; Clear objects allocated to BANK1
  2782  0031  30E3               	movlw	low __pbssBANK1
  2783  0032  0084               	movwf	4
  2784  0033  3000               	movlw	high __pbssBANK1
  2785  0034  0085               	movwf	5
  2786  0035  3008               	movlw	8
  2787  0036  3184  2450  3180   	fcall	clear_ram0
  2788                           
  2789                           ; Clear objects allocated to BANK2
  2790  0039  3020               	movlw	low __pbssBANK2
  2791  003A  0084               	movwf	4
  2792  003B  3001               	movlw	high __pbssBANK2
  2793  003C  0085               	movwf	5
  2794  003D  3048               	movlw	72
  2795  003E  3184  2450  3180   	fcall	clear_ram0
  2796                           
  2797                           ; Clear objects allocated to BANK3
  2798  0041  30A0               	movlw	low __pbssBANK3
  2799  0042  0084               	movwf	4
  2800  0043  3001               	movlw	high __pbssBANK3
  2801  0044  0085               	movwf	5
  2802  0045  3040               	movlw	64
  2803  0046  3184  2450         	fcall	clear_ram0
  2804  0048                     end_of_initialization:	
  2805                           ;End of C runtime variable initialization code
  2806                           
  2807  0048                     __end_of__initialization:	
  2808  0048  107E               	bcf	int$flags,0	;clear compiler interrupt flag (level 1)
  2809  0049  0020               	movlb	0
  2810  004A  3180  284C         	ljmp	_main	;jump to C main() function
  2811                           
  2812                           	psect	bssCOMMON
  2813  007A                     __pbssCOMMON:	
  2814  007A                     _eusartRxCount:	
  2815  007A                     	ds	1
  2816  007B                     _eusartTxHead:	
  2817  007B                     	ds	1
  2818                           
  2819                           	psect	bssBANK0
  2820  006B                     __pbssBANK0:	
  2821  006B                     _i:	
  2822  006B                     	ds	2
  2823  006D                     _eusartRxTail:	
  2824  006D                     	ds	1
  2825  006E                     _eusartRxHead:	
  2826  006E                     	ds	1
  2827  006F                     _eusartTxTail:	
  2828  006F                     	ds	1
  2829                           
  2830                           	psect	bssBANK1
  2831  00E3                     __pbssBANK1:	
  2832  00E3                     _eusartTxBuffer:	
  2833  00E3                     	ds	8
  2834                           
  2835                           	psect	bssBANK2
  2836  0120                     __pbssBANK2:	
  2837  0120                     main@F12049:	
  2838  0120                     	ds	64
  2839  0160                     _eusartRxBuffer:	
  2840  0160                     	ds	8
  2841                           
  2842                           	psect	bssBANK3
  2843  01A0                     __pbssBANK3:	
  2844  01A0                     init_A@F12056:	
  2845  01A0                     	ds	64
  2846                           
  2847                           	psect	clrtext
  2848  0450                     clear_ram0:	
  2849                           ;	Called with FSR0 containing the base address, and
  2850                           ;	WREG with the size to clear
  2851                           
  2852  0450  0064               	clrwdt	;clear the watchdog before getting into this loop
  2853  0451                     clrloop0:	
  2854  0451  0180               	clrf	0	;clear RAM location pointed to by FSR
  2855  0452  3101               	addfsr 0,1
  2856  0453  0B89               	decfsz	9,f	;Have we reached the end of clearing yet?
  2857  0454  2C51               	goto	clrloop0	;have we reached the end yet?
  2858  0455  3400               	retlw	0	;all done for this memory range, return
  2859                           
  2860                           	psect	cstackBANK1
  2861  00A0                     __pcstackBANK1:	
  2862  00A0                     ??_main:	
  2863                           
  2864                           ; 1 bytes @ 0x0
  2865  00A0                     	ds	2
  2866  00A2                     main@buf:	
  2867                           
  2868                           ; 64 bytes @ 0x2
  2869  00A2                     	ds	64
  2870  00E2                     main@error:	
  2871                           
  2872                           ; 1 bytes @ 0x42
  2873  00E2                     	ds	1
  2874                           
  2875                           	psect	cstackCOMMON
  2876  0070                     __pcstackCOMMON:	
  2877  0070                     ?_EUSART_Receive_ISR:	
  2878  0070                     ??_EUSART_Receive_ISR:	
  2879                           ; 1 bytes @ 0x0
  2880                           
  2881  0070                     ?_EUSART_Transmit_ISR:	
  2882                           ; 1 bytes @ 0x0
  2883                           
  2884  0070                     ??_EUSART_Transmit_ISR:	
  2885                           ; 1 bytes @ 0x0
  2886                           
  2887  0070                     ?_PIN_MANAGER_Initialize:	
  2888                           ; 1 bytes @ 0x0
  2889                           
  2890  0070                     ?_OSCILLATOR_Initialize:	
  2891                           ; 1 bytes @ 0x0
  2892                           
  2893  0070                     ?_init_A:	
  2894                           ; 1 bytes @ 0x0
  2895                           
  2896  0070                     ?_connexion:	
  2897                           ; 1 bytes @ 0x0
  2898                           
  2899  0070                     ?_remote:	
  2900                           ; 1 bytes @ 0x0
  2901                           
  2902  0070                     ?_EUSART_Initialize:	
  2903                           ; 1 bytes @ 0x0
  2904                           
  2905  0070                     ?_EUSART_Read:	
  2906                           ; 1 bytes @ 0x0
  2907                           
  2908  0070                     ?_EUSART_Write:	
  2909                           ; 1 bytes @ 0x0
  2910                           
  2911  0070                     ?_INTERRUPT_InterruptManager:	
  2912                           ; 1 bytes @ 0x0
  2913                           
  2914  0070                     ?_SYSTEM_Initialize:	
  2915                           ; 1 bytes @ 0x0
  2916                           
  2917  0070                     ?_main:	
  2918                           ; 1 bytes @ 0x0
  2919                           
  2920  0070                     ?_Partiel_Reset:	
  2921                           ; 1 bytes @ 0x0
  2922                           
  2923  0070                     ?_Set_Features:	
  2924                           ; 1 bytes @ 0x0
  2925                           
  2926  0070                     ?_Set_Mode:	
  2927                           ; 1 bytes @ 0x0
  2928                           
  2929  0070                     ?_Reboot:	
  2930                           ; 1 bytes @ 0x0
  2931                           
  2932  0070                     ?_Turn_On:	
  2933                           ; 1 bytes @ 0x0
  2934                           
  2935  0070                     ?_Scan:	
  2936                           ; 1 bytes @ 0x0
  2937                           
  2938  0070                     ?_StopScan:	
  2939                           ; 1 bytes @ 0x0
  2940                           
  2941  0070                     ?_Config_Name:	
  2942                           ; 1 bytes @ 0x0
  2943                           
  2944                           
  2945                           ; 1 bytes @ 0x0
  2946  0070                     	ds	1
  2947  0071                     ??_INTERRUPT_InterruptManager:	
  2948                           
  2949                           ; 1 bytes @ 0x1
  2950  0071                     	ds	1
  2951  0072                     ?_EUSART_SetRxInterruptHandler:	
  2952  0072                     ?_EUSART_SetTxInterruptHandler:	
  2953                           ; 1 bytes @ 0x2
  2954                           
  2955  0072                     ??_PIN_MANAGER_Initialize:	
  2956                           ; 1 bytes @ 0x2
  2957                           
  2958  0072                     ??_OSCILLATOR_Initialize:	
  2959                           ; 1 bytes @ 0x2
  2960                           
  2961  0072                     ??_EUSART_Read:	
  2962                           ; 1 bytes @ 0x2
  2963                           
  2964  0072                     ??_EUSART_Write:	
  2965                           ; 1 bytes @ 0x2
  2966                           
  2967  0072                     EUSART_SetTxInterruptHandler@interruptHandler:	
  2968                           ; 1 bytes @ 0x2
  2969                           
  2970  0072                     EUSART_SetRxInterruptHandler@interruptHandler:	
  2971                           ; 2 bytes @ 0x2
  2972                           
  2973                           
  2974                           ; 2 bytes @ 0x2
  2975  0072                     	ds	1
  2976  0073                     EUSART_Read@readValue:	
  2977  0073                     EUSART_Write@txData:	
  2978                           ; 1 bytes @ 0x3
  2979                           
  2980                           
  2981                           ; 1 bytes @ 0x3
  2982  0073                     	ds	1
  2983  0074                     ??_EUSART_SetRxInterruptHandler:	
  2984  0074                     ??_EUSART_SetTxInterruptHandler:	
  2985                           ; 1 bytes @ 0x4
  2986                           
  2987  0074                     ??_connexion:	
  2988                           ; 1 bytes @ 0x4
  2989                           
  2990  0074                     ??_remote:	
  2991                           ; 1 bytes @ 0x4
  2992                           
  2993  0074                     ??_EUSART_Initialize:	
  2994                           ; 1 bytes @ 0x4
  2995                           
  2996  0074                     ??_Partiel_Reset:	
  2997                           ; 1 bytes @ 0x4
  2998                           
  2999  0074                     ??_Set_Features:	
  3000                           ; 1 bytes @ 0x4
  3001                           
  3002  0074                     ??_Set_Mode:	
  3003                           ; 1 bytes @ 0x4
  3004                           
  3005  0074                     ??_Reboot:	
  3006                           ; 1 bytes @ 0x4
  3007                           
  3008  0074                     ??_Turn_On:	
  3009                           ; 1 bytes @ 0x4
  3010                           
  3011  0074                     ??_Scan:	
  3012                           ; 1 bytes @ 0x4
  3013                           
  3014  0074                     ??_StopScan:	
  3015                           ; 1 bytes @ 0x4
  3016                           
  3017  0074                     ??_Config_Name:	
  3018                           ; 1 bytes @ 0x4
  3019                           
  3020  0074                     ?_Verif_Erreur:	
  3021                           ; 1 bytes @ 0x4
  3022                           
  3023  0074                     Verif_Erreur@size:	
  3024                           ; 2 bytes @ 0x4
  3025                           
  3026                           
  3027                           ; 2 bytes @ 0x4
  3028  0074                     	ds	1
  3029  0075                     ??_SYSTEM_Initialize:	
  3030                           
  3031                           ; 1 bytes @ 0x5
  3032  0075                     	ds	1
  3033  0076                     ??_Verif_Erreur:	
  3034                           
  3035                           ; 1 bytes @ 0x6
  3036  0076                     	ds	2
  3037  0078                     ??_init_A:	
  3038                           
  3039                           ; 1 bytes @ 0x8
  3040  0078                     	ds	2
  3041                           
  3042                           	psect	cstackBANK0
  3043  0020                     __pcstackBANK0:	
  3044  0020                     Verif_Erreur@i:	
  3045                           
  3046                           ; 2 bytes @ 0x0
  3047  0020                     	ds	2
  3048  0022                     Verif_Erreur@j:	
  3049                           
  3050                           ; 2 bytes @ 0x2
  3051  0022                     	ds	2
  3052  0024                     Verif_Erreur@buf:	
  3053                           
  3054                           ; 1 bytes @ 0x4
  3055  0024                     	ds	1
  3056  0025                     init_A@buf:	
  3057                           
  3058                           ; 64 bytes @ 0x5
  3059  0025                     	ds	64
  3060  0065                     init_A@error:	
  3061                           
  3062                           ; 1 bytes @ 0x45
  3063  0065                     	ds	1
  3064                           
  3065                           	psect	maintext
  3066  004C                     __pmaintext:	
  3067 ;;
  3068 ;;Main: autosize = 0, tempsize = 2, incstack = 0, save=0
  3069 ;;
  3070 ;; *************** function _main *****************
  3071 ;; Defined at:
  3072 ;;		line 50 in file "main.c"
  3073 ;; Parameters:    Size  Location     Type
  3074 ;;		None
  3075 ;; Auto vars:     Size  Location     Type
  3076 ;;  buf            64    2[BANK1 ] unsigned char [64]
  3077 ;;  error           1   66[BANK1 ] unsigned char 
  3078 ;; Return value:  Size  Location     Type
  3079 ;;                  1    wreg      void 
  3080 ;; Registers used:
  3081 ;;		wreg, fsr0l, fsr0h, fsr1l, fsr1h, status,2, status,0, pclath, cstack
  3082 ;; Tracked objects:
  3083 ;;		On entry : B1F/0
  3084 ;;		On exit  : 0/0
  3085 ;;		Unchanged: 0/0
  3086 ;; Data sizes:     COMMON   BANK0   BANK1   BANK2   BANK3   BANK4   BANK5   BANK6   BANK7   BANK8   BANK9  BANK10  BANK1
      +1  BANK12
  3087 ;;      Params:         0       0       0       0       0       0       0       0       0       0       0       0       
      +0       0
  3088 ;;      Locals:         0       0      65       0       0       0       0       0       0       0       0       0       
      +0       0
  3089 ;;      Temps:          0       0       2       0       0       0       0       0       0       0       0       0       
      +0       0
  3090 ;;      Totals:         0       0      67       0       0       0       0       0       0       0       0       0       
      +0       0
  3091 ;;Total ram usage:       67 bytes
  3092 ;; Hardware stack levels required when called:    5
  3093 ;; This function calls:
  3094 ;;		_EUSART_Write
  3095 ;;		_SYSTEM_Initialize
  3096 ;;		_connexion
  3097 ;;		_init_A
  3098 ;;		_remote
  3099 ;; This function is called by:
  3100 ;;		Startup code after reset
  3101 ;; This function uses a non-reentrant model
  3102 ;;
  3103                           
  3104                           
  3105                           ;psect for function _main
  3106  004C                     _main:	
  3107                           
  3108                           ;main.c: 52: SYSTEM_Initialize();
  3109                           
  3110                           ;incstack = 0
  3111                           ; Regs used in _main: [wreg-fsr1h+status,2+status,0+pclath+cstack]
  3112  004C  3184  2440  3180   	fcall	_SYSTEM_Initialize
  3113                           
  3114                           ;main.c: 53: (INTCONbits.GIE = 1);
  3115  004F  178B               	bsf	11,7	;volatile
  3116                           
  3117                           ;main.c: 54: (INTCONbits.PEIE = 1);
  3118  0050  170B               	bsf	11,6	;volatile
  3119                           
  3120                           ;main.c: 58: RC5 = 0;
  3121  0051  0020               	movlb	0	; select bank0
  3122  0052  128E               	bcf	14,5	;volatile
  3123                           
  3124                           ;main.c: 59: RA2 = 0;
  3125  0053  110C               	bcf	12,2	;volatile
  3126                           
  3127                           ;main.c: 60: RA1 = 0;
  3128  0054  108C               	bcf	12,1	;volatile
  3129                           
  3130                           ;main.c: 61: RA5 = 0;
  3131  0055  128C               	bcf	12,5	;volatile
  3132                           
  3133                           ;main.c: 63: unsigned char error = 0;
  3134  0056  0021               	movlb	1	; select bank1
  3135  0057  01E2               	clrf	main@error^(0+128)
  3136                           
  3137                           ;main.c: 64: char buf [64] = {0};
  3138  0058  3020               	movlw	low main@F12049
  3139  0059  0086               	movwf	6
  3140  005A  3001               	movlw	high main@F12049
  3141  005B  0087               	movwf	7
  3142  005C  30A2               	movlw	low main@buf
  3143  005D  0084               	movwf	4
  3144  005E  3000               	movlw	high main@buf
  3145  005F  0085               	movwf	5
  3146  0060  3040               	movlw	64
  3147  0061  00A0               	movwf	??_main^(0+128)
  3148  0062                     u510:	
  3149  0062  0016               	moviw fsr1++
  3150  0063  001A               	movwi fsr0++
  3151  0064  0BA0               	decfsz	??_main^(0+128),f
  3152  0065  2862               	goto	u510
  3153                           
  3154                           ;main.c: 72: init_A();
  3155  0066  3181  212E  3180   	fcall	_init_A
  3156                           
  3157                           ;main.c: 75: connexion();
  3158  0069  3182  2237  3180   	fcall	_connexion
  3159                           
  3160                           ;main.c: 76: _delay((unsigned long)((1000)*(16000000/4000.0))); connexion();
  3161  006C  3015               	movlw	21
  3162  006D  0021               	movlb	1	; select bank1
  3163  006E  00A1               	movwf	(??_main^(0+128)+1)
  3164  006F  304B               	movlw	75
  3165  0070  00A0               	movwf	??_main^(0+128)
  3166  0071  30BE               	movlw	190
  3167  0072                     u547:	
  3168  0072  0B89               	decfsz	9,f
  3169  0073  2872               	goto	u547
  3170  0074  0BA0               	decfsz	??_main^(0+128),f
  3171  0075  2872               	goto	u547
  3172  0076  0BA1               	decfsz	(??_main^(0+128)+1),f
  3173  0077  2872               	goto	u547
  3174  0078  0000               	nop
  3175  0079  3182  2237  3180   	fcall	_connexion
  3176                           
  3177                           ;main.c: 77: _delay((unsigned long)((1000)*(16000000/4000.0)));
  3178  007C  3015               	movlw	21
  3179  007D  0021               	movlb	1	; select bank1
  3180  007E  00A1               	movwf	(??_main^(0+128)+1)
  3181  007F  304B               	movlw	75
  3182  0080  00A0               	movwf	??_main^(0+128)
  3183  0081  30BE               	movlw	190
  3184  0082                     u557:	
  3185  0082  0B89               	decfsz	9,f
  3186  0083  2882               	goto	u557
  3187  0084  0BA0               	decfsz	??_main^(0+128),f
  3188  0085  2882               	goto	u557
  3189  0086  0BA1               	decfsz	(??_main^(0+128)+1),f
  3190  0087  2882               	goto	u557
  3191  0088  0000               	nop
  3192                           
  3193                           ;main.c: 78: connexion();
  3194  0089  3182  2237  3180   	fcall	_connexion
  3195                           
  3196                           ;main.c: 79: _delay((unsigned long)((1000)*(16000000/4000.0)));
  3197  008C  3015               	movlw	21
  3198  008D  0021               	movlb	1	; select bank1
  3199  008E  00A1               	movwf	(??_main^(0+128)+1)
  3200  008F  304B               	movlw	75
  3201  0090  00A0               	movwf	??_main^(0+128)
  3202  0091  30BE               	movlw	190
  3203  0092                     u567:	
  3204  0092  0B89               	decfsz	9,f
  3205  0093  2892               	goto	u567
  3206  0094  0BA0               	decfsz	??_main^(0+128),f
  3207  0095  2892               	goto	u567
  3208  0096  0BA1               	decfsz	(??_main^(0+128)+1),f
  3209  0097  2892               	goto	u567
  3210  0098  0000               	nop
  3211                           
  3212                           ;main.c: 80: connexion();
  3213  0099  3182  2237  3180   	fcall	_connexion
  3214                           
  3215                           ;main.c: 81: _delay((unsigned long)((1000)*(16000000/4000.0)));
  3216  009C  3015               	movlw	21
  3217  009D  0021               	movlb	1	; select bank1
  3218  009E  00A1               	movwf	(??_main^(0+128)+1)
  3219  009F  304B               	movlw	75
  3220  00A0  00A0               	movwf	??_main^(0+128)
  3221  00A1  30BE               	movlw	190
  3222  00A2                     u577:	
  3223  00A2  0B89               	decfsz	9,f
  3224  00A3  28A2               	goto	u577
  3225  00A4  0BA0               	decfsz	??_main^(0+128),f
  3226  00A5  28A2               	goto	u577
  3227  00A6  0BA1               	decfsz	(??_main^(0+128)+1),f
  3228  00A7  28A2               	goto	u577
  3229  00A8  0000               	nop
  3230                           
  3231                           ;main.c: 82: connexion();
  3232  00A9  3182  2237  3180   	fcall	_connexion
  3233                           
  3234                           ;main.c: 83: _delay((unsigned long)((1000)*(16000000/4000.0)));
  3235  00AC  3015               	movlw	21
  3236  00AD  0021               	movlb	1	; select bank1
  3237  00AE  00A1               	movwf	(??_main^(0+128)+1)
  3238  00AF  304B               	movlw	75
  3239  00B0  00A0               	movwf	??_main^(0+128)
  3240  00B1  30BE               	movlw	190
  3241  00B2                     u587:	
  3242  00B2  0B89               	decfsz	9,f
  3243  00B3  28B2               	goto	u587
  3244  00B4  0BA0               	decfsz	??_main^(0+128),f
  3245  00B5  28B2               	goto	u587
  3246  00B6  0BA1               	decfsz	(??_main^(0+128)+1),f
  3247  00B7  28B2               	goto	u587
  3248  00B8  0000               	nop
  3249                           
  3250                           ;main.c: 84: connexion();
  3251  00B9  3182  2237  3180   	fcall	_connexion
  3252                           
  3253                           ;main.c: 85: _delay((unsigned long)((1000)*(16000000/4000.0)));
  3254  00BC  3015               	movlw	21
  3255  00BD  0021               	movlb	1	; select bank1
  3256  00BE  00A1               	movwf	(??_main^(0+128)+1)
  3257  00BF  304B               	movlw	75
  3258  00C0  00A0               	movwf	??_main^(0+128)
  3259  00C1  30BE               	movlw	190
  3260  00C2                     u597:	
  3261  00C2  0B89               	decfsz	9,f
  3262  00C3  28C2               	goto	u597
  3263  00C4  0BA0               	decfsz	??_main^(0+128),f
  3264  00C5  28C2               	goto	u597
  3265  00C6  0BA1               	decfsz	(??_main^(0+128)+1),f
  3266  00C7  28C2               	goto	u597
  3267  00C8  0000               	nop
  3268                           
  3269                           ;main.c: 86: connexion();
  3270  00C9  3182  2237  3180   	fcall	_connexion
  3271                           
  3272                           ;main.c: 87: _delay((unsigned long)((1000)*(16000000/4000.0)));
  3273  00CC  3015               	movlw	21
  3274  00CD  0021               	movlb	1	; select bank1
  3275  00CE  00A1               	movwf	(??_main^(0+128)+1)
  3276  00CF  304B               	movlw	75
  3277  00D0  00A0               	movwf	??_main^(0+128)
  3278  00D1  30BE               	movlw	190
  3279  00D2                     u607:	
  3280  00D2  0B89               	decfsz	9,f
  3281  00D3  28D2               	goto	u607
  3282  00D4  0BA0               	decfsz	??_main^(0+128),f
  3283  00D5  28D2               	goto	u607
  3284  00D6  0BA1               	decfsz	(??_main^(0+128)+1),f
  3285  00D7  28D2               	goto	u607
  3286  00D8  0000               	nop
  3287                           
  3288                           ;main.c: 88: connexion();
  3289  00D9  3182  2237  3180   	fcall	_connexion
  3290                           
  3291                           ;main.c: 89: _delay((unsigned long)((1000)*(16000000/4000.0)));
  3292  00DC  3015               	movlw	21
  3293  00DD  0021               	movlb	1	; select bank1
  3294  00DE  00A1               	movwf	(??_main^(0+128)+1)
  3295  00DF  304B               	movlw	75
  3296  00E0  00A0               	movwf	??_main^(0+128)
  3297  00E1  30BE               	movlw	190
  3298  00E2                     u617:	
  3299  00E2  0B89               	decfsz	9,f
  3300  00E3  28E2               	goto	u617
  3301  00E4  0BA0               	decfsz	??_main^(0+128),f
  3302  00E5  28E2               	goto	u617
  3303  00E6  0BA1               	decfsz	(??_main^(0+128)+1),f
  3304  00E7  28E2               	goto	u617
  3305  00E8  0000               	nop
  3306                           
  3307                           ;main.c: 90: connexion();
  3308  00E9  3182  2237  3180   	fcall	_connexion
  3309                           
  3310                           ;main.c: 91: _delay((unsigned long)((1000)*(16000000/4000.0)));
  3311  00EC  3015               	movlw	21
  3312  00ED  0021               	movlb	1	; select bank1
  3313  00EE  00A1               	movwf	(??_main^(0+128)+1)
  3314  00EF  304B               	movlw	75
  3315  00F0  00A0               	movwf	??_main^(0+128)
  3316  00F1  30BE               	movlw	190
  3317  00F2                     u627:	
  3318  00F2  0B89               	decfsz	9,f
  3319  00F3  28F2               	goto	u627
  3320  00F4  0BA0               	decfsz	??_main^(0+128),f
  3321  00F5  28F2               	goto	u627
  3322  00F6  0BA1               	decfsz	(??_main^(0+128)+1),f
  3323  00F7  28F2               	goto	u627
  3324  00F8  0000               	nop
  3325                           
  3326                           ;main.c: 92: connexion();
  3327  00F9  3182  2237  3180   	fcall	_connexion
  3328                           
  3329                           ;main.c: 93: _delay((unsigned long)((1000)*(16000000/4000.0)));
  3330  00FC  3015               	movlw	21
  3331  00FD  0021               	movlb	1	; select bank1
  3332  00FE  00A1               	movwf	(??_main^(0+128)+1)
  3333  00FF  304B               	movlw	75
  3334  0100  00A0               	movwf	??_main^(0+128)
  3335  0101  30BE               	movlw	190
  3336  0102                     u637:	
  3337  0102  0B89               	decfsz	9,f
  3338  0103  2902               	goto	u637
  3339  0104  0BA0               	decfsz	??_main^(0+128),f
  3340  0105  2902               	goto	u637
  3341  0106  0BA1               	decfsz	(??_main^(0+128)+1),f
  3342  0107  2902               	goto	u637
  3343  0108  0000               	nop
  3344                           
  3345                           ;main.c: 96: remote();
  3346  0109  3183  23F4  3180   	fcall	_remote
  3347                           
  3348                           ;main.c: 97: _delay((unsigned long)((1000)*(16000000/4000.0)));
  3349  010C  3015               	movlw	21
  3350  010D  0021               	movlb	1	; select bank1
  3351  010E  00A1               	movwf	(??_main^(0+128)+1)
  3352  010F  304B               	movlw	75
  3353  0110  00A0               	movwf	??_main^(0+128)
  3354  0111  30BE               	movlw	190
  3355  0112                     u647:	
  3356  0112  0B89               	decfsz	9,f
  3357  0113  2912               	goto	u647
  3358  0114  0BA0               	decfsz	??_main^(0+128),f
  3359  0115  2912               	goto	u647
  3360  0116  0BA1               	decfsz	(??_main^(0+128)+1),f
  3361  0117  2912               	goto	u647
  3362  0118  0000               	nop
  3363  0119  2927               	goto	l1380
  3364  011A                     l1382:	
  3365                           
  3366                           ;main.c: 115: {
  3367                           ;main.c: 118: RC5 = 1 ;
  3368  011A  168E               	bsf	14,5	;volatile
  3369                           
  3370                           ;main.c: 119: EUSART_Write('$');
  3371  011B  3024               	movlw	36
  3372  011C  3183  2340  3180   	fcall	_EUSART_Write
  3373                           
  3374                           ;main.c: 123: EUSART_Write(10);
  3375  011F  300A               	movlw	10
  3376  0120  3183  2340  3180   	fcall	_EUSART_Write
  3377                           
  3378                           ;main.c: 124: EUSART_Write(13);
  3379  0123  300D               	movlw	13
  3380  0124  3183  2340  3180   	fcall	_EUSART_Write
  3381  0127                     l1380:	
  3382                           ;main.c: 109: while(1)
  3383                           
  3384                           ;main.c: 130: }
  3385                           
  3386                           
  3387                           ;main.c: 110: {
  3388                           ;main.c: 114: if ( RC4 == 0)
  3389  0127  0020               	movlb	0	; select bank0
  3390  0128  1E0E               	btfss	14,4	;volatile
  3391  0129  291A               	goto	l1382
  3392                           
  3393                           ;main.c: 131: else if (RC4 == 1)
  3394  012A  1E0E               	btfss	14,4	;volatile
  3395  012B  2927               	goto	l1380
  3396                           
  3397                           ;main.c: 132: {
  3398                           ;main.c: 134: RC5=0;
  3399  012C  128E               	bcf	14,5	;volatile
  3400  012D  2927               	goto	l1380
  3401  012E                     __end_of_main:	
  3402                           
  3403                           	psect	text1
  3404  03F4                     __ptext1:	
  3405 ;; *************** function _remote *****************
  3406 ;; Defined at:
  3407 ;;		line 238 in file "blue.c"
  3408 ;; Parameters:    Size  Location     Type
  3409 ;;		None
  3410 ;; Auto vars:     Size  Location     Type
  3411 ;;		None
  3412 ;; Return value:  Size  Location     Type
  3413 ;;                  1    wreg      void 
  3414 ;; Registers used:
  3415 ;;		wreg, fsr1l, fsr1h, status,2, status,0, pclath, cstack
  3416 ;; Tracked objects:
  3417 ;;		On entry : 0/0
  3418 ;;		On exit  : 0/0
  3419 ;;		Unchanged: 0/0
  3420 ;; Data sizes:     COMMON   BANK0   BANK1   BANK2   BANK3   BANK4   BANK5   BANK6   BANK7   BANK8   BANK9  BANK10  BANK1
      +1  BANK12
  3421 ;;      Params:         0       0       0       0       0       0       0       0       0       0       0       0       
      +0       0
  3422 ;;      Locals:         0       0       0       0       0       0       0       0       0       0       0       0       
      +0       0
  3423 ;;      Temps:          0       0       0       0       0       0       0       0       0       0       0       0       
      +0       0
  3424 ;;      Totals:         0       0       0       0       0       0       0       0       0       0       0       0       
      +0       0
  3425 ;;Total ram usage:        0 bytes
  3426 ;; Hardware stack levels used:    1
  3427 ;; Hardware stack levels required when called:    3
  3428 ;; This function calls:
  3429 ;;		_EUSART_Write
  3430 ;; This function is called by:
  3431 ;;		_main
  3432 ;; This function uses a non-reentrant model
  3433 ;;
  3434                           
  3435                           
  3436                           ;psect for function _remote
  3437  03F4                     _remote:	
  3438                           
  3439                           ;blue.c: 240: EUSART_Write ('!');
  3440                           
  3441                           ;incstack = 0
  3442                           ; Regs used in _remote: [wreg+fsr1l+fsr1h+status,2+status,0+pclath+cstack]
  3443  03F4  3021               	movlw	33
  3444  03F5  3183  2340  3183   	fcall	_EUSART_Write
  3445                           
  3446                           ;blue.c: 241: EUSART_Write (',');
  3447  03F8  302C               	movlw	44
  3448  03F9  3183  2340  3183   	fcall	_EUSART_Write
  3449                           
  3450                           ;blue.c: 242: EUSART_Write ('1');
  3451  03FC  3031               	movlw	49
  3452  03FD  3183  2340  3183   	fcall	_EUSART_Write
  3453                           
  3454                           ;blue.c: 246: EUSART_Write(13);
  3455  0400  300D               	movlw	13
  3456  0401  3183  2340  3183   	fcall	_EUSART_Write
  3457                           
  3458                           ;blue.c: 247: EUSART_Write(10);
  3459  0404  300A               	movlw	10
  3460  0405  3183  2340         	fcall	_EUSART_Write
  3461  0407  0008               	return
  3462  0408                     __end_of_remote:	
  3463                           
  3464                           	psect	text2
  3465  012E                     __ptext2:	
  3466 ;; *************** function _init_A *****************
  3467 ;; Defined at:
  3468 ;;		line 180 in file "blue.c"
  3469 ;; Parameters:    Size  Location     Type
  3470 ;;		None
  3471 ;; Auto vars:     Size  Location     Type
  3472 ;;  buf            64    5[BANK0 ] unsigned char [64]
  3473 ;;  error           1   69[BANK0 ] unsigned char 
  3474 ;; Return value:  Size  Location     Type
  3475 ;;                  1    wreg      void 
  3476 ;; Registers used:
  3477 ;;		wreg, fsr0l, fsr0h, fsr1l, fsr1h, status,2, status,0, pclath, cstack
  3478 ;; Tracked objects:
  3479 ;;		On entry : 0/0
  3480 ;;		On exit  : 0/0
  3481 ;;		Unchanged: 0/0
  3482 ;; Data sizes:     COMMON   BANK0   BANK1   BANK2   BANK3   BANK4   BANK5   BANK6   BANK7   BANK8   BANK9  BANK10  BANK1
      +1  BANK12
  3483 ;;      Params:         0       0       0       0       0       0       0       0       0       0       0       0       
      +0       0
  3484 ;;      Locals:         0      65       0       0       0       0       0       0       0       0       0       0       
      +0       0
  3485 ;;      Temps:          2       0       0       0       0       0       0       0       0       0       0       0       
      +0       0
  3486 ;;      Totals:         2      65       0       0       0       0       0       0       0       0       0       0       
      +0       0
  3487 ;;Total ram usage:       67 bytes
  3488 ;; Hardware stack levels used:    1
  3489 ;; Hardware stack levels required when called:    4
  3490 ;; This function calls:
  3491 ;;		_Config_Name
  3492 ;;		_Partiel_Reset
  3493 ;;		_Reboot
  3494 ;;		_Scan
  3495 ;;		_Set_Features
  3496 ;;		_Set_Mode
  3497 ;;		_StopScan
  3498 ;;		_Turn_On
  3499 ;;		_Verif_Erreur
  3500 ;; This function is called by:
  3501 ;;		_main
  3502 ;; This function uses a non-reentrant model
  3503 ;;
  3504                           
  3505                           
  3506                           ;psect for function _init_A
  3507  012E                     _init_A:	
  3508                           
  3509                           ;blue.c: 182: unsigned char error = 0;
  3510                           
  3511                           ;incstack = 0
  3512                           ; Regs used in _init_A: [wreg-fsr1h+status,2+status,0+pclath+cstack]
  3513  012E  0020               	movlb	0	; select bank0
  3514  012F  01E5               	clrf	init_A@error
  3515                           
  3516                           ;blue.c: 183: char buf [64] = {0};
  3517  0130  30A0               	movlw	low init_A@F12056
  3518  0131  0086               	movwf	6
  3519  0132  3001               	movlw	high init_A@F12056
  3520  0133  0087               	movwf	7
  3521  0134  3025               	movlw	low init_A@buf
  3522  0135  0084               	movwf	4
  3523  0136  3000               	movlw	high init_A@buf
  3524  0137  0085               	movwf	5
  3525  0138  3040               	movlw	64
  3526  0139  00F8               	movwf	??_init_A
  3527  013A                     u420:	
  3528  013A  0016               	moviw fsr1++
  3529  013B  001A               	movwi fsr0++
  3530  013C  0BF8               	decfsz	??_init_A,f
  3531  013D  293A               	goto	u420
  3532                           
  3533                           ;blue.c: 187: Turn_On();
  3534  013E  3184  241C  3181   	fcall	_Turn_On
  3535                           
  3536                           ;blue.c: 188: error = Verif_Erreur(buf,64);
  3537  0141  3040               	movlw	64
  3538  0142  00F4               	movwf	Verif_Erreur@size
  3539  0143  3000               	movlw	0
  3540  0144  00F5               	movwf	Verif_Erreur@size+1
  3541  0145  3025               	movlw	(low (init_A@buf| 0))& (0+255)
  3542  0146  3181  21CA  3181   	fcall	_Verif_Erreur
  3543  0149  0874               	movf	?_Verif_Erreur,w
  3544  014A  00F8               	movwf	??_init_A
  3545  014B  0878               	movf	??_init_A,w
  3546  014C  0020               	movlb	0	; select bank0
  3547  014D  00E5               	movwf	init_A@error
  3548                           
  3549                           ;blue.c: 190: _delay((unsigned long)((1000)*(16000000/4000.0)));
  3550  014E  3015               	movlw	21
  3551  014F  00F9               	movwf	??_init_A+1
  3552  0150  304B               	movlw	75
  3553  0151  00F8               	movwf	??_init_A
  3554  0152  30BE               	movlw	190
  3555  0153                     u657:	
  3556  0153  0B89               	decfsz	9,f
  3557  0154  2953               	goto	u657
  3558  0155  0BF8               	decfsz	??_init_A,f
  3559  0156  2953               	goto	u657
  3560  0157  0BF9               	decfsz	??_init_A+1,f
  3561  0158  2953               	goto	u657
  3562  0159  3200               	nop2
  3563                           
  3564                           ;blue.c: 192: Partiel_Reset();
  3565  015A  3183  23DC  3181   	fcall	_Partiel_Reset
  3566                           
  3567                           ;blue.c: 193: error = Verif_Erreur(buf,64);
  3568  015D  3040               	movlw	64
  3569  015E  00F4               	movwf	Verif_Erreur@size
  3570  015F  3000               	movlw	0
  3571  0160  00F5               	movwf	Verif_Erreur@size+1
  3572  0161  3025               	movlw	(low (init_A@buf| 0))& (0+255)
  3573  0162  3181  21CA  3181   	fcall	_Verif_Erreur
  3574  0165  0874               	movf	?_Verif_Erreur,w
  3575  0166  00F8               	movwf	??_init_A
  3576  0167  0878               	movf	??_init_A,w
  3577  0168  0020               	movlb	0	; select bank0
  3578  0169  00E5               	movwf	init_A@error
  3579                           
  3580                           ;blue.c: 195: Set_Mode();
  3581  016A  3182  228C  3181   	fcall	_Set_Mode
  3582                           
  3583                           ;blue.c: 196: error = Verif_Erreur(buf,64);
  3584  016D  3040               	movlw	64
  3585  016E  00F4               	movwf	Verif_Erreur@size
  3586  016F  3000               	movlw	0
  3587  0170  00F5               	movwf	Verif_Erreur@size+1
  3588  0171  3025               	movlw	(low (init_A@buf| 0))& (0+255)
  3589  0172  3181  21CA  3181   	fcall	_Verif_Erreur
  3590  0175  0874               	movf	?_Verif_Erreur,w
  3591  0176  00F8               	movwf	??_init_A
  3592  0177  0878               	movf	??_init_A,w
  3593  0178  0020               	movlb	0	; select bank0
  3594  0179  00E5               	movwf	init_A@error
  3595                           
  3596                           ;blue.c: 198: Set_Features();
  3597  017A  3182  22C0  3181   	fcall	_Set_Features
  3598                           
  3599                           ;blue.c: 199: error = Verif_Erreur(buf,64);
  3600  017D  3040               	movlw	64
  3601  017E  00F4               	movwf	Verif_Erreur@size
  3602  017F  3000               	movlw	0
  3603  0180  00F5               	movwf	Verif_Erreur@size+1
  3604  0181  3025               	movlw	(low (init_A@buf| 0))& (0+255)
  3605  0182  3181  21CA  3181   	fcall	_Verif_Erreur
  3606  0185  0874               	movf	?_Verif_Erreur,w
  3607  0186  00F8               	movwf	??_init_A
  3608  0187  0878               	movf	??_init_A,w
  3609  0188  0020               	movlb	0	; select bank0
  3610  0189  00E5               	movwf	init_A@error
  3611                           
  3612                           ;blue.c: 201: Config_Name();
  3613  018A  3183  231C  3181   	fcall	_Config_Name
  3614                           
  3615                           ;blue.c: 202: error = Verif_Erreur(buf,64);
  3616  018D  3040               	movlw	64
  3617  018E  00F4               	movwf	Verif_Erreur@size
  3618  018F  3000               	movlw	0
  3619  0190  00F5               	movwf	Verif_Erreur@size+1
  3620  0191  3025               	movlw	(low (init_A@buf| 0))& (0+255)
  3621  0192  3181  21CA  3181   	fcall	_Verif_Erreur
  3622  0195  0874               	movf	?_Verif_Erreur,w
  3623  0196  00F8               	movwf	??_init_A
  3624  0197  0878               	movf	??_init_A,w
  3625  0198  0020               	movlb	0	; select bank0
  3626  0199  00E5               	movwf	init_A@error
  3627                           
  3628                           ;blue.c: 204: Reboot();
  3629  019A  3184  2408  3181   	fcall	_Reboot
  3630                           
  3631                           ;blue.c: 205: error = Verif_Erreur(buf,64);
  3632  019D  3040               	movlw	64
  3633  019E  00F4               	movwf	Verif_Erreur@size
  3634  019F  3000               	movlw	0
  3635  01A0  00F5               	movwf	Verif_Erreur@size+1
  3636  01A1  3025               	movlw	(low (init_A@buf| 0))& (0+255)
  3637  01A2  3181  21CA  3181   	fcall	_Verif_Erreur
  3638  01A5  0874               	movf	?_Verif_Erreur,w
  3639  01A6  00F8               	movwf	??_init_A
  3640  01A7  0878               	movf	??_init_A,w
  3641  01A8  0020               	movlb	0	; select bank0
  3642  01A9  00E5               	movwf	init_A@error
  3643                           
  3644                           ;blue.c: 207: Scan();
  3645  01AA  3184  2434  3181   	fcall	_Scan
  3646                           
  3647                           ;blue.c: 208: error = Verif_Erreur(buf,64);
  3648  01AD  3040               	movlw	64
  3649  01AE  00F4               	movwf	Verif_Erreur@size
  3650  01AF  3000               	movlw	0
  3651  01B0  00F5               	movwf	Verif_Erreur@size+1
  3652  01B1  3025               	movlw	(low (init_A@buf| 0))& (0+255)
  3653  01B2  3181  21CA  3181   	fcall	_Verif_Erreur
  3654  01B5  0874               	movf	?_Verif_Erreur,w
  3655  01B6  00F8               	movwf	??_init_A
  3656  01B7  0878               	movf	??_init_A,w
  3657  01B8  0020               	movlb	0	; select bank0
  3658  01B9  00E5               	movwf	init_A@error
  3659                           
  3660                           ;blue.c: 212: StopScan();
  3661  01BA  3184  2428  3181   	fcall	_StopScan
  3662                           
  3663                           ;blue.c: 213: error = Verif_Erreur(buf,64);
  3664  01BD  3040               	movlw	64
  3665  01BE  00F4               	movwf	Verif_Erreur@size
  3666  01BF  3000               	movlw	0
  3667  01C0  00F5               	movwf	Verif_Erreur@size+1
  3668  01C1  3025               	movlw	(low (init_A@buf| 0))& (0+255)
  3669  01C2  3181  21CA         	fcall	_Verif_Erreur
  3670  01C4  0874               	movf	?_Verif_Erreur,w
  3671  01C5  00F8               	movwf	??_init_A
  3672  01C6  0878               	movf	??_init_A,w
  3673  01C7  0020               	movlb	0	; select bank0
  3674  01C8  00E5               	movwf	init_A@error
  3675  01C9  0008               	return
  3676  01CA                     __end_of_init_A:	
  3677                           
  3678                           	psect	text3
  3679  01CA                     __ptext3:	
  3680 ;; *************** function _Verif_Erreur *****************
  3681 ;; Defined at:
  3682 ;;		line 89 in file "blue.c"
  3683 ;; Parameters:    Size  Location     Type
  3684 ;;  buf             1    wreg     PTR unsigned char 
  3685 ;;		 -> init_A@buf(64), 
  3686 ;;  size            2    4[COMMON] unsigned int 
  3687 ;; Auto vars:     Size  Location     Type
  3688 ;;  buf             1    4[BANK0 ] PTR unsigned char 
  3689 ;;		 -> init_A@buf(64), 
  3690 ;;  j               2    2[BANK0 ] int 
  3691 ;;  i               2    0[BANK0 ] unsigned int 
  3692 ;; Return value:  Size  Location     Type
  3693 ;;                  2    4[COMMON] int 
  3694 ;; Registers used:
  3695 ;;		wreg, fsr1l, fsr1h, status,2, status,0, pclath, cstack
  3696 ;; Tracked objects:
  3697 ;;		On entry : 0/0
  3698 ;;		On exit  : 0/0
  3699 ;;		Unchanged: 0/0
  3700 ;; Data sizes:     COMMON   BANK0   BANK1   BANK2   BANK3   BANK4   BANK5   BANK6   BANK7   BANK8   BANK9  BANK10  BANK1
      +1  BANK12
  3701 ;;      Params:         2       0       0       0       0       0       0       0       0       0       0       0       
      +0       0
  3702 ;;      Locals:         0       5       0       0       0       0       0       0       0       0       0       0       
      +0       0
  3703 ;;      Temps:          2       0       0       0       0       0       0       0       0       0       0       0       
      +0       0
  3704 ;;      Totals:         4       5       0       0       0       0       0       0       0       0       0       0       
      +0       0
  3705 ;;Total ram usage:        9 bytes
  3706 ;; Hardware stack levels used:    1
  3707 ;; Hardware stack levels required when called:    3
  3708 ;; This function calls:
  3709 ;;		_EUSART_Read
  3710 ;; This function is called by:
  3711 ;;		_init_A
  3712 ;; This function uses a non-reentrant model
  3713 ;;
  3714                           
  3715                           
  3716                           ;psect for function _Verif_Erreur
  3717  01CA                     _Verif_Erreur:	
  3718                           
  3719                           ;incstack = 0
  3720                           ; Regs used in _Verif_Erreur: [wreg+fsr1l+fsr1h+status,2+status,0+pclath+cstack]
  3721                           ;Verif_Erreur@buf stored from wreg
  3722  01CA  0020               	movlb	0	; select bank0
  3723  01CB  00A4               	movwf	Verif_Erreur@buf
  3724                           
  3725                           ;blue.c: 92: unsigned int i = 0;
  3726  01CC  01A0               	clrf	Verif_Erreur@i
  3727  01CD  01A1               	clrf	Verif_Erreur@i+1
  3728                           
  3729                           ;blue.c: 93: int j = 0;
  3730  01CE  01A2               	clrf	Verif_Erreur@j
  3731  01CF  01A3               	clrf	Verif_Erreur@j+1
  3732  01D0                     l1108:	
  3733                           ;blue.c: 94: do{
  3734                           
  3735                           
  3736                           ;blue.c: 95: _delay((unsigned long)((5)*(16000000/4000.0)));
  3737  01D0  301A               	movlw	26
  3738  01D1  00F6               	movwf	??_Verif_Erreur
  3739  01D2  30F8               	movlw	248
  3740  01D3                     u667:	
  3741  01D3  0B89               	decfsz	9,f
  3742  01D4  29D3               	goto	u667
  3743  01D5  0BF6               	decfsz	??_Verif_Erreur,f
  3744  01D6  29D3               	goto	u667
  3745  01D7  3200               	nop2
  3746                           
  3747                           ;blue.c: 96: j++;
  3748  01D8  3001               	movlw	1
  3749  01D9  0020               	movlb	0	; select bank0
  3750  01DA  07A2               	addwf	Verif_Erreur@j,f
  3751  01DB  3000               	movlw	0
  3752  01DC  3DA3               	addwfc	Verif_Erreur@j+1,f
  3753                           
  3754                           ;blue.c: 97: if (j == 10) return -1;
  3755  01DD  300A               	movlw	10
  3756  01DE  0622               	xorwf	Verif_Erreur@j,w
  3757  01DF  0423               	iorwf	Verif_Erreur@j+1,w
  3758  01E0  1D03               	btfss	3,2
  3759  01E1  29E7               	goto	l1118
  3760  01E2  30FF               	movlw	255
  3761  01E3  00F4               	movwf	?_Verif_Erreur
  3762  01E4  30FF               	movlw	255
  3763  01E5  00F5               	movwf	?_Verif_Erreur+1
  3764  01E6  0008               	return
  3765  01E7                     l1118:	
  3766                           
  3767                           ;blue.c: 98: }while (eusartRxCount <= 0);
  3768  01E7  087A               	movf	_eusartRxCount,w	;volatile
  3769  01E8  1D03               	btfss	3,2
  3770  01E9  2A2E               	goto	l1146
  3771  01EA  29D0               	goto	l1108
  3772  01EB                     l1120:	
  3773                           ;blue.c: 100: while (eusartRxCount > 0){
  3774                           
  3775                           
  3776                           ;blue.c: 101: buf[i] = EUSART_Read();
  3777  01EB  3183  2386  3181   	fcall	_EUSART_Read
  3778  01EE  00F6               	movwf	??_Verif_Erreur
  3779  01EF  0020               	movlb	0	; select bank0
  3780  01F0  0820               	movf	Verif_Erreur@i,w
  3781  01F1  0724               	addwf	Verif_Erreur@buf,w
  3782  01F2  00F7               	movwf	??_Verif_Erreur+1
  3783  01F3  0877               	movf	??_Verif_Erreur+1,w
  3784  01F4  0086               	movwf	6
  3785  01F5  0187               	clrf	7
  3786  01F6  0876               	movf	??_Verif_Erreur,w
  3787  01F7  0081               	movwf	1
  3788                           
  3789                           ;blue.c: 102: i++;
  3790  01F8  3001               	movlw	1
  3791  01F9  07A0               	addwf	Verif_Erreur@i,f
  3792  01FA  3000               	movlw	0
  3793  01FB  3DA1               	addwfc	Verif_Erreur@i+1,f
  3794                           
  3795                           ;blue.c: 103: if (i == size){
  3796  01FC  0875               	movf	Verif_Erreur@size+1,w
  3797  01FD  0621               	xorwf	Verif_Erreur@i+1,w
  3798  01FE  1D03               	skipz
  3799  01FF  2A02               	goto	u335
  3800  0200  0874               	movf	Verif_Erreur@size,w
  3801  0201  0620               	xorwf	Verif_Erreur@i,w
  3802  0202                     u335:	
  3803  0202  1903               	btfsc	3,2
  3804  0203  2A13               	goto	l1134
  3805  0204  2A1B               	goto	l1140
  3806  0205                     l1128:	
  3807                           ;blue.c: 104: while (eusartRxCount > 0){
  3808                           
  3809                           
  3810                           ;blue.c: 105: EUSART_Read();
  3811  0205  3183  2386  3181   	fcall	_EUSART_Read
  3812                           
  3813                           ;blue.c: 106: if (eusartRxCount == 0) _delay((unsigned long)((5)*(16000000/4000.0)));
  3814  0208  087A               	movf	_eusartRxCount,w	;volatile
  3815  0209  1D03               	btfss	3,2
  3816  020A  2A13               	goto	l1134
  3817  020B  301A               	movlw	26
  3818  020C  00F6               	movwf	??_Verif_Erreur
  3819  020D  30F8               	movlw	248
  3820  020E                     u677:	
  3821  020E  0B89               	decfsz	9,f
  3822  020F  2A0E               	goto	u677
  3823  0210  0BF6               	decfsz	??_Verif_Erreur,f
  3824  0211  2A0E               	goto	u677
  3825  0212  3200               	nop2
  3826  0213                     l1134:	
  3827  0213  087A               	movf	_eusartRxCount,w	;volatile
  3828  0214  1D03               	btfss	3,2
  3829  0215  2A05               	goto	l1128
  3830                           
  3831                           ;blue.c: 107: }
  3832                           ;blue.c: 108: return -2;
  3833  0216  30FE               	movlw	254
  3834  0217  00F4               	movwf	?_Verif_Erreur
  3835  0218  30FF               	movlw	255
  3836  0219  00F5               	movwf	?_Verif_Erreur+1
  3837  021A  0008               	return
  3838  021B                     l1140:	
  3839                           
  3840                           ;blue.c: 109: }
  3841                           ;blue.c: 110: _delay((unsigned long)((1)*(16000000/4000.0)));
  3842  021B  3006               	movlw	6
  3843  021C  00F6               	movwf	??_Verif_Erreur
  3844  021D  3030               	movlw	48
  3845  021E                     u687:	
  3846  021E  0B89               	decfsz	9,f
  3847  021F  2A1E               	goto	u687
  3848  0220  0BF6               	decfsz	??_Verif_Erreur,f
  3849  0221  2A1E               	goto	u687
  3850  0222  3200               	nop2
  3851                           
  3852                           ;blue.c: 111: if (eusartRxCount == 0) _delay((unsigned long)((4)*(16000000/4000.0)));
  3853  0223  087A               	movf	_eusartRxCount,w	;volatile
  3854  0224  1D03               	btfss	3,2
  3855  0225  2A2E               	goto	l1146
  3856  0226  3015               	movlw	21
  3857  0227  00F6               	movwf	??_Verif_Erreur
  3858  0228  30C6               	movlw	198
  3859  0229                     u697:	
  3860  0229  0B89               	decfsz	9,f
  3861  022A  2A29               	goto	u697
  3862  022B  0BF6               	decfsz	??_Verif_Erreur,f
  3863  022C  2A29               	goto	u697
  3864  022D  3200               	nop2
  3865  022E                     l1146:	
  3866  022E  087A               	movf	_eusartRxCount,w	;volatile
  3867  022F  1D03               	btfss	3,2
  3868  0230  29EB               	goto	l1120
  3869                           
  3870                           ;blue.c: 112: }
  3871                           ;blue.c: 113: return j;
  3872  0231  0020               	movlb	0	; select bank0
  3873  0232  0823               	movf	Verif_Erreur@j+1,w
  3874  0233  00F5               	movwf	?_Verif_Erreur+1
  3875  0234  0822               	movf	Verif_Erreur@j,w
  3876  0235  00F4               	movwf	?_Verif_Erreur
  3877  0236  0008               	return
  3878  0237                     __end_of_Verif_Erreur:	
  3879                           
  3880                           	psect	text4
  3881  0386                     __ptext4:	
  3882 ;; *************** function _EUSART_Read *****************
  3883 ;; Defined at:
  3884 ;;		line 128 in file "mcc_generated_files/eusart.c"
  3885 ;; Parameters:    Size  Location     Type
  3886 ;;		None
  3887 ;; Auto vars:     Size  Location     Type
  3888 ;;  readValue       1    3[COMMON] unsigned char 
  3889 ;; Return value:  Size  Location     Type
  3890 ;;                  1    wreg      unsigned char 
  3891 ;; Registers used:
  3892 ;;		wreg, fsr1l, fsr1h, status,2, status,0
  3893 ;; Tracked objects:
  3894 ;;		On entry : 0/0
  3895 ;;		On exit  : 0/0
  3896 ;;		Unchanged: 0/0
  3897 ;; Data sizes:     COMMON   BANK0   BANK1   BANK2   BANK3   BANK4   BANK5   BANK6   BANK7   BANK8   BANK9  BANK10  BANK1
      +1  BANK12
  3898 ;;      Params:         0       0       0       0       0       0       0       0       0       0       0       0       
      +0       0
  3899 ;;      Locals:         1       0       0       0       0       0       0       0       0       0       0       0       
      +0       0
  3900 ;;      Temps:          1       0       0       0       0       0       0       0       0       0       0       0       
      +0       0
  3901 ;;      Totals:         2       0       0       0       0       0       0       0       0       0       0       0       
      +0       0
  3902 ;;Total ram usage:        2 bytes
  3903 ;; Hardware stack levels used:    1
  3904 ;; Hardware stack levels required when called:    2
  3905 ;; This function calls:
  3906 ;;		Nothing
  3907 ;; This function is called by:
  3908 ;;		_Verif_Erreur
  3909 ;; This function uses a non-reentrant model
  3910 ;;
  3911                           
  3912                           
  3913                           ;psect for function _EUSART_Read
  3914  0386                     _EUSART_Read:	
  3915                           
  3916                           ;eusart.c: 130: uint8_t readValue = 0;
  3917                           
  3918                           ;incstack = 0
  3919                           ; Regs used in _EUSART_Read: [wreg+fsr1l+fsr1h+status,2+status,0]
  3920  0386  01F3               	clrf	EUSART_Read@readValue
  3921  0387                     l1002:	
  3922                           ;eusart.c: 133: {
  3923                           
  3924                           ;eusart.c: 132: while(0 == eusartRxCount)
  3925                           
  3926  0387  087A               	movf	_eusartRxCount,w	;volatile
  3927  0388  1903               	btfsc	3,2
  3928  0389  2B87               	goto	l1002
  3929                           
  3930                           ;eusart.c: 134: }
  3931                           ;eusart.c: 136: readValue = eusartRxBuffer[eusartRxTail++];
  3932  038A  0020               	movlb	0	; select bank0
  3933  038B  086D               	movf	_eusartRxTail,w
  3934  038C  3E60               	addlw	(low (_eusartRxBuffer| (0+256)))& (0+255)
  3935  038D  0086               	movwf	6
  3936  038E  3001               	movlw	1	; select bank2/3
  3937  038F  0087               	movwf	7
  3938  0390  0801               	movf	1,w
  3939  0391  00F2               	movwf	??_EUSART_Read
  3940  0392  0872               	movf	??_EUSART_Read,w
  3941  0393  00F3               	movwf	EUSART_Read@readValue
  3942  0394  3001               	movlw	1
  3943  0395  00F2               	movwf	??_EUSART_Read
  3944  0396  0872               	movf	??_EUSART_Read,w
  3945  0397  07ED               	addwf	_eusartRxTail,f	;volatile
  3946                           
  3947                           ;eusart.c: 137: if(sizeof(eusartRxBuffer) <= eusartRxTail)
  3948  0398  3008               	movlw	8
  3949  0399  026D               	subwf	_eusartRxTail,w	;volatile
  3950  039A  1803               	btfsc	3,0
  3951                           
  3952                           ;eusart.c: 138: {
  3953                           ;eusart.c: 139: eusartRxTail = 0;
  3954  039B  01ED               	clrf	_eusartRxTail	;volatile
  3955                           
  3956                           ;eusart.c: 140: }
  3957                           ;eusart.c: 141: PIE1bits.RCIE = 0;
  3958  039C  0021               	movlb	1	; select bank1
  3959  039D  1290               	bcf	16,5	;volatile
  3960                           
  3961                           ;eusart.c: 142: eusartRxCount--;
  3962  039E  3001               	movlw	1
  3963  039F  02FA               	subwf	_eusartRxCount,f	;volatile
  3964                           
  3965                           ;eusart.c: 143: PIE1bits.RCIE = 1;
  3966  03A0  1690               	bsf	16,5	;volatile
  3967                           
  3968                           ;eusart.c: 145: return readValue;
  3969  03A1  0873               	movf	EUSART_Read@readValue,w
  3970  03A2  0008               	return
  3971  03A3                     __end_of_EUSART_Read:	
  3972                           
  3973                           	psect	text5
  3974  041C                     __ptext5:	
  3975 ;; *************** function _Turn_On *****************
  3976 ;; Defined at:
  3977 ;;		line 81 in file "blue.c"
  3978 ;; Parameters:    Size  Location     Type
  3979 ;;		None
  3980 ;; Auto vars:     Size  Location     Type
  3981 ;;		None
  3982 ;; Return value:  Size  Location     Type
  3983 ;;                  1    wreg      void 
  3984 ;; Registers used:
  3985 ;;		wreg, fsr1l, fsr1h, status,2, status,0, pclath, cstack
  3986 ;; Tracked objects:
  3987 ;;		On entry : 0/0
  3988 ;;		On exit  : 0/0
  3989 ;;		Unchanged: 0/0
  3990 ;; Data sizes:     COMMON   BANK0   BANK1   BANK2   BANK3   BANK4   BANK5   BANK6   BANK7   BANK8   BANK9  BANK10  BANK1
      +1  BANK12
  3991 ;;      Params:         0       0       0       0       0       0       0       0       0       0       0       0       
      +0       0
  3992 ;;      Locals:         0       0       0       0       0       0       0       0       0       0       0       0       
      +0       0
  3993 ;;      Temps:          0       0       0       0       0       0       0       0       0       0       0       0       
      +0       0
  3994 ;;      Totals:         0       0       0       0       0       0       0       0       0       0       0       0       
      +0       0
  3995 ;;Total ram usage:        0 bytes
  3996 ;; Hardware stack levels used:    1
  3997 ;; Hardware stack levels required when called:    3
  3998 ;; This function calls:
  3999 ;;		_EUSART_Write
  4000 ;; This function is called by:
  4001 ;;		_init_A
  4002 ;; This function uses a non-reentrant model
  4003 ;;
  4004                           
  4005                           
  4006                           ;psect for function _Turn_On
  4007  041C                     _Turn_On:	
  4008                           
  4009                           ;blue.c: 83: EUSART_Write('+');
  4010                           
  4011                           ;incstack = 0
  4012                           ; Regs used in _Turn_On: [wreg+fsr1l+fsr1h+status,2+status,0+pclath+cstack]
  4013  041C  302B               	movlw	43
  4014  041D  3183  2340  3184   	fcall	_EUSART_Write
  4015                           
  4016                           ;blue.c: 85: EUSART_Write(13);
  4017  0420  300D               	movlw	13
  4018  0421  3183  2340  3184   	fcall	_EUSART_Write
  4019                           
  4020                           ;blue.c: 86: EUSART_Write(10);
  4021  0424  300A               	movlw	10
  4022  0425  3183  2340         	fcall	_EUSART_Write
  4023  0427  0008               	return
  4024  0428                     __end_of_Turn_On:	
  4025                           
  4026                           	psect	text6
  4027  0428                     __ptext6:	
  4028 ;; *************** function _StopScan *****************
  4029 ;; Defined at:
  4030 ;;		line 128 in file "blue.c"
  4031 ;; Parameters:    Size  Location     Type
  4032 ;;		None
  4033 ;; Auto vars:     Size  Location     Type
  4034 ;;		None
  4035 ;; Return value:  Size  Location     Type
  4036 ;;                  1    wreg      void 
  4037 ;; Registers used:
  4038 ;;		wreg, fsr1l, fsr1h, status,2, status,0, pclath, cstack
  4039 ;; Tracked objects:
  4040 ;;		On entry : 0/0
  4041 ;;		On exit  : 0/0
  4042 ;;		Unchanged: 0/0
  4043 ;; Data sizes:     COMMON   BANK0   BANK1   BANK2   BANK3   BANK4   BANK5   BANK6   BANK7   BANK8   BANK9  BANK10  BANK1
      +1  BANK12
  4044 ;;      Params:         0       0       0       0       0       0       0       0       0       0       0       0       
      +0       0
  4045 ;;      Locals:         0       0       0       0       0       0       0       0       0       0       0       0       
      +0       0
  4046 ;;      Temps:          0       0       0       0       0       0       0       0       0       0       0       0       
      +0       0
  4047 ;;      Totals:         0       0       0       0       0       0       0       0       0       0       0       0       
      +0       0
  4048 ;;Total ram usage:        0 bytes
  4049 ;; Hardware stack levels used:    1
  4050 ;; Hardware stack levels required when called:    3
  4051 ;; This function calls:
  4052 ;;		_EUSART_Write
  4053 ;; This function is called by:
  4054 ;;		_init_A
  4055 ;; This function uses a non-reentrant model
  4056 ;;
  4057                           
  4058                           
  4059                           ;psect for function _StopScan
  4060  0428                     _StopScan:	
  4061                           
  4062                           ;blue.c: 130: EUSART_Write('X');
  4063                           
  4064                           ;incstack = 0
  4065                           ; Regs used in _StopScan: [wreg+fsr1l+fsr1h+status,2+status,0+pclath+cstack]
  4066  0428  3058               	movlw	88
  4067  0429  3183  2340  3184   	fcall	_EUSART_Write
  4068                           
  4069                           ;blue.c: 132: EUSART_Write(13);
  4070  042C  300D               	movlw	13
  4071  042D  3183  2340  3184   	fcall	_EUSART_Write
  4072                           
  4073                           ;blue.c: 133: EUSART_Write(10);
  4074  0430  300A               	movlw	10
  4075  0431  3183  2340         	fcall	_EUSART_Write
  4076  0433  0008               	return
  4077  0434                     __end_of_StopScan:	
  4078                           
  4079                           	psect	text7
  4080  028C                     __ptext7:	
  4081 ;; *************** function _Set_Mode *****************
  4082 ;; Defined at:
  4083 ;;		line 49 in file "blue.c"
  4084 ;; Parameters:    Size  Location     Type
  4085 ;;		None
  4086 ;; Auto vars:     Size  Location     Type
  4087 ;;		None
  4088 ;; Return value:  Size  Location     Type
  4089 ;;                  1    wreg      void 
  4090 ;; Registers used:
  4091 ;;		wreg, fsr1l, fsr1h, status,2, status,0, pclath, cstack
  4092 ;; Tracked objects:
  4093 ;;		On entry : 0/0
  4094 ;;		On exit  : 0/0
  4095 ;;		Unchanged: 0/0
  4096 ;; Data sizes:     COMMON   BANK0   BANK1   BANK2   BANK3   BANK4   BANK5   BANK6   BANK7   BANK8   BANK9  BANK10  BANK1
      +1  BANK12
  4097 ;;      Params:         0       0       0       0       0       0       0       0       0       0       0       0       
      +0       0
  4098 ;;      Locals:         0       0       0       0       0       0       0       0       0       0       0       0       
      +0       0
  4099 ;;      Temps:          0       0       0       0       0       0       0       0       0       0       0       0       
      +0       0
  4100 ;;      Totals:         0       0       0       0       0       0       0       0       0       0       0       0       
      +0       0
  4101 ;;Total ram usage:        0 bytes
  4102 ;; Hardware stack levels used:    1
  4103 ;; Hardware stack levels required when called:    3
  4104 ;; This function calls:
  4105 ;;		_EUSART_Write
  4106 ;; This function is called by:
  4107 ;;		_init_A
  4108 ;; This function uses a non-reentrant model
  4109 ;;
  4110                           
  4111                           
  4112                           ;psect for function _Set_Mode
  4113  028C                     _Set_Mode:	
  4114                           
  4115                           ;blue.c: 52: EUSART_Write('S');
  4116                           
  4117                           ;incstack = 0
  4118                           ; Regs used in _Set_Mode: [wreg+fsr1l+fsr1h+status,2+status,0+pclath+cstack]
  4119  028C  3053               	movlw	83
  4120  028D  3183  2340  3182   	fcall	_EUSART_Write
  4121                           
  4122                           ;blue.c: 53: EUSART_Write('S');
  4123  0290  3053               	movlw	83
  4124  0291  3183  2340  3182   	fcall	_EUSART_Write
  4125                           
  4126                           ;blue.c: 54: EUSART_Write(',');
  4127  0294  302C               	movlw	44
  4128  0295  3183  2340  3182   	fcall	_EUSART_Write
  4129                           
  4130                           ;blue.c: 55: EUSART_Write('C');
  4131  0298  3043               	movlw	67
  4132  0299  3183  2340  3182   	fcall	_EUSART_Write
  4133                           
  4134                           ;blue.c: 56: EUSART_Write('0');
  4135  029C  3030               	movlw	48
  4136  029D  3183  2340  3182   	fcall	_EUSART_Write
  4137                           
  4138                           ;blue.c: 57: EUSART_Write('0');
  4139  02A0  3030               	movlw	48
  4140  02A1  3183  2340  3182   	fcall	_EUSART_Write
  4141                           
  4142                           ;blue.c: 58: EUSART_Write('0');
  4143  02A4  3030               	movlw	48
  4144  02A5  3183  2340  3182   	fcall	_EUSART_Write
  4145                           
  4146                           ;blue.c: 59: EUSART_Write('0');
  4147  02A8  3030               	movlw	48
  4148  02A9  3183  2340  3182   	fcall	_EUSART_Write
  4149                           
  4150                           ;blue.c: 60: EUSART_Write('0');
  4151  02AC  3030               	movlw	48
  4152  02AD  3183  2340  3182   	fcall	_EUSART_Write
  4153                           
  4154                           ;blue.c: 61: EUSART_Write('0');
  4155  02B0  3030               	movlw	48
  4156  02B1  3183  2340  3182   	fcall	_EUSART_Write
  4157                           
  4158                           ;blue.c: 62: EUSART_Write('0');
  4159  02B4  3030               	movlw	48
  4160  02B5  3183  2340  3182   	fcall	_EUSART_Write
  4161                           
  4162                           ;blue.c: 66: EUSART_Write(13);
  4163  02B8  300D               	movlw	13
  4164  02B9  3183  2340  3182   	fcall	_EUSART_Write
  4165                           
  4166                           ;blue.c: 67: EUSART_Write(10);
  4167  02BC  300A               	movlw	10
  4168  02BD  3183  2340         	fcall	_EUSART_Write
  4169  02BF  0008               	return
  4170  02C0                     __end_of_Set_Mode:	
  4171                           
  4172                           	psect	text8
  4173  02C0                     __ptext8:	
  4174 ;; *************** function _Set_Features *****************
  4175 ;; Defined at:
  4176 ;;		line 30 in file "blue.c"
  4177 ;; Parameters:    Size  Location     Type
  4178 ;;		None
  4179 ;; Auto vars:     Size  Location     Type
  4180 ;;		None
  4181 ;; Return value:  Size  Location     Type
  4182 ;;                  1    wreg      void 
  4183 ;; Registers used:
  4184 ;;		wreg, fsr1l, fsr1h, status,2, status,0, pclath, cstack
  4185 ;; Tracked objects:
  4186 ;;		On entry : 0/0
  4187 ;;		On exit  : 0/0
  4188 ;;		Unchanged: 0/0
  4189 ;; Data sizes:     COMMON   BANK0   BANK1   BANK2   BANK3   BANK4   BANK5   BANK6   BANK7   BANK8   BANK9  BANK10  BANK1
      +1  BANK12
  4190 ;;      Params:         0       0       0       0       0       0       0       0       0       0       0       0       
      +0       0
  4191 ;;      Locals:         0       0       0       0       0       0       0       0       0       0       0       0       
      +0       0
  4192 ;;      Temps:          0       0       0       0       0       0       0       0       0       0       0       0       
      +0       0
  4193 ;;      Totals:         0       0       0       0       0       0       0       0       0       0       0       0       
      +0       0
  4194 ;;Total ram usage:        0 bytes
  4195 ;; Hardware stack levels used:    1
  4196 ;; Hardware stack levels required when called:    3
  4197 ;; This function calls:
  4198 ;;		_EUSART_Write
  4199 ;; This function is called by:
  4200 ;;		_init_A
  4201 ;; This function uses a non-reentrant model
  4202 ;;
  4203                           
  4204                           
  4205                           ;psect for function _Set_Features
  4206  02C0                     _Set_Features:	
  4207                           
  4208                           ;blue.c: 32: EUSART_Write('S');
  4209                           
  4210                           ;incstack = 0
  4211                           ; Regs used in _Set_Features: [wreg+fsr1l+fsr1h+status,2+status,0+pclath+cstack]
  4212  02C0  3053               	movlw	83
  4213  02C1  3183  2340  3182   	fcall	_EUSART_Write
  4214                           
  4215                           ;blue.c: 33: EUSART_Write('R');
  4216  02C4  3052               	movlw	82
  4217  02C5  3183  2340  3182   	fcall	_EUSART_Write
  4218                           
  4219                           ;blue.c: 34: EUSART_Write(',');
  4220  02C8  302C               	movlw	44
  4221  02C9  3183  2340  3182   	fcall	_EUSART_Write
  4222                           
  4223                           ;blue.c: 36: EUSART_Write('9');
  4224  02CC  3039               	movlw	57
  4225  02CD  3183  2340  3182   	fcall	_EUSART_Write
  4226                           
  4227                           ;blue.c: 37: EUSART_Write('2');
  4228  02D0  3032               	movlw	50
  4229  02D1  3183  2340  3182   	fcall	_EUSART_Write
  4230                           
  4231                           ;blue.c: 38: EUSART_Write('0');
  4232  02D4  3030               	movlw	48
  4233  02D5  3183  2340  3182   	fcall	_EUSART_Write
  4234                           
  4235                           ;blue.c: 39: EUSART_Write('0');
  4236  02D8  3030               	movlw	48
  4237  02D9  3183  2340  3182   	fcall	_EUSART_Write
  4238                           
  4239                           ;blue.c: 40: EUSART_Write('0');
  4240  02DC  3030               	movlw	48
  4241  02DD  3183  2340  3182   	fcall	_EUSART_Write
  4242                           
  4243                           ;blue.c: 41: EUSART_Write('0');
  4244  02E0  3030               	movlw	48
  4245  02E1  3183  2340  3182   	fcall	_EUSART_Write
  4246                           
  4247                           ;blue.c: 42: EUSART_Write('0');
  4248  02E4  3030               	movlw	48
  4249  02E5  3183  2340  3182   	fcall	_EUSART_Write
  4250                           
  4251                           ;blue.c: 43: EUSART_Write('0');
  4252  02E8  3030               	movlw	48
  4253  02E9  3183  2340  3182   	fcall	_EUSART_Write
  4254                           
  4255                           ;blue.c: 45: EUSART_Write(13);
  4256  02EC  300D               	movlw	13
  4257  02ED  3183  2340  3182   	fcall	_EUSART_Write
  4258                           
  4259                           ;blue.c: 46: EUSART_Write(10);
  4260  02F0  300A               	movlw	10
  4261  02F1  3183  2340         	fcall	_EUSART_Write
  4262  02F3  0008               	return
  4263  02F4                     __end_of_Set_Features:	
  4264                           
  4265                           	psect	text9
  4266  0434                     __ptext9:	
  4267 ;; *************** function _Scan *****************
  4268 ;; Defined at:
  4269 ;;		line 116 in file "blue.c"
  4270 ;; Parameters:    Size  Location     Type
  4271 ;;		None
  4272 ;; Auto vars:     Size  Location     Type
  4273 ;;		None
  4274 ;; Return value:  Size  Location     Type
  4275 ;;                  1    wreg      void 
  4276 ;; Registers used:
  4277 ;;		wreg, fsr1l, fsr1h, status,2, status,0, pclath, cstack
  4278 ;; Tracked objects:
  4279 ;;		On entry : 0/0
  4280 ;;		On exit  : 0/0
  4281 ;;		Unchanged: 0/0
  4282 ;; Data sizes:     COMMON   BANK0   BANK1   BANK2   BANK3   BANK4   BANK5   BANK6   BANK7   BANK8   BANK9  BANK10  BANK1
      +1  BANK12
  4283 ;;      Params:         0       0       0       0       0       0       0       0       0       0       0       0       
      +0       0
  4284 ;;      Locals:         0       0       0       0       0       0       0       0       0       0       0       0       
      +0       0
  4285 ;;      Temps:          0       0       0       0       0       0       0       0       0       0       0       0       
      +0       0
  4286 ;;      Totals:         0       0       0       0       0       0       0       0       0       0       0       0       
      +0       0
  4287 ;;Total ram usage:        0 bytes
  4288 ;; Hardware stack levels used:    1
  4289 ;; Hardware stack levels required when called:    3
  4290 ;; This function calls:
  4291 ;;		_EUSART_Write
  4292 ;; This function is called by:
  4293 ;;		_init_A
  4294 ;; This function uses a non-reentrant model
  4295 ;;
  4296                           
  4297                           
  4298                           ;psect for function _Scan
  4299  0434                     _Scan:	
  4300                           
  4301                           ;blue.c: 118: EUSART_Write('F');
  4302                           
  4303                           ;incstack = 0
  4304                           ; Regs used in _Scan: [wreg+fsr1l+fsr1h+status,2+status,0+pclath+cstack]
  4305  0434  3046               	movlw	70
  4306  0435  3183  2340  3184   	fcall	_EUSART_Write
  4307                           
  4308                           ;blue.c: 119: EUSART_Write(13);
  4309  0438  300D               	movlw	13
  4310  0439  3183  2340  3184   	fcall	_EUSART_Write
  4311                           
  4312                           ;blue.c: 120: EUSART_Write(10);
  4313  043C  300A               	movlw	10
  4314  043D  3183  2340         	fcall	_EUSART_Write
  4315  043F  0008               	return
  4316  0440                     __end_of_Scan:	
  4317                           
  4318                           	psect	text10
  4319  0408                     __ptext10:	
  4320 ;; *************** function _Reboot *****************
  4321 ;; Defined at:
  4322 ;;		line 71 in file "blue.c"
  4323 ;; Parameters:    Size  Location     Type
  4324 ;;		None
  4325 ;; Auto vars:     Size  Location     Type
  4326 ;;		None
  4327 ;; Return value:  Size  Location     Type
  4328 ;;                  1    wreg      void 
  4329 ;; Registers used:
  4330 ;;		wreg, fsr1l, fsr1h, status,2, status,0, pclath, cstack
  4331 ;; Tracked objects:
  4332 ;;		On entry : 0/0
  4333 ;;		On exit  : 0/0
  4334 ;;		Unchanged: 0/0
  4335 ;; Data sizes:     COMMON   BANK0   BANK1   BANK2   BANK3   BANK4   BANK5   BANK6   BANK7   BANK8   BANK9  BANK10  BANK1
      +1  BANK12
  4336 ;;      Params:         0       0       0       0       0       0       0       0       0       0       0       0       
      +0       0
  4337 ;;      Locals:         0       0       0       0       0       0       0       0       0       0       0       0       
      +0       0
  4338 ;;      Temps:          0       0       0       0       0       0       0       0       0       0       0       0       
      +0       0
  4339 ;;      Totals:         0       0       0       0       0       0       0       0       0       0       0       0       
      +0       0
  4340 ;;Total ram usage:        0 bytes
  4341 ;; Hardware stack levels used:    1
  4342 ;; Hardware stack levels required when called:    3
  4343 ;; This function calls:
  4344 ;;		_EUSART_Write
  4345 ;; This function is called by:
  4346 ;;		_init_A
  4347 ;; This function uses a non-reentrant model
  4348 ;;
  4349                           
  4350                           
  4351                           ;psect for function _Reboot
  4352  0408                     _Reboot:	
  4353                           
  4354                           ;blue.c: 73: EUSART_Write('R');
  4355                           
  4356                           ;incstack = 0
  4357                           ; Regs used in _Reboot: [wreg+fsr1l+fsr1h+status,2+status,0+pclath+cstack]
  4358  0408  3052               	movlw	82
  4359  0409  3183  2340  3184   	fcall	_EUSART_Write
  4360                           
  4361                           ;blue.c: 74: EUSART_Write(',');
  4362  040C  302C               	movlw	44
  4363  040D  3183  2340  3184   	fcall	_EUSART_Write
  4364                           
  4365                           ;blue.c: 75: EUSART_Write('1');
  4366  0410  3031               	movlw	49
  4367  0411  3183  2340  3184   	fcall	_EUSART_Write
  4368                           
  4369                           ;blue.c: 77: EUSART_Write(13);
  4370  0414  300D               	movlw	13
  4371  0415  3183  2340  3184   	fcall	_EUSART_Write
  4372                           
  4373                           ;blue.c: 78: EUSART_Write(10);
  4374  0418  300A               	movlw	10
  4375  0419  3183  2340         	fcall	_EUSART_Write
  4376  041B  0008               	return
  4377  041C                     __end_of_Reboot:	
  4378                           
  4379                           	psect	text11
  4380  03DC                     __ptext11:	
  4381 ;; *************** function _Partiel_Reset *****************
  4382 ;; Defined at:
  4383 ;;		line 17 in file "blue.c"
  4384 ;; Parameters:    Size  Location     Type
  4385 ;;		None
  4386 ;; Auto vars:     Size  Location     Type
  4387 ;;		None
  4388 ;; Return value:  Size  Location     Type
  4389 ;;                  1    wreg      void 
  4390 ;; Registers used:
  4391 ;;		wreg, fsr1l, fsr1h, status,2, status,0, pclath, cstack
  4392 ;; Tracked objects:
  4393 ;;		On entry : 0/0
  4394 ;;		On exit  : 0/0
  4395 ;;		Unchanged: 0/0
  4396 ;; Data sizes:     COMMON   BANK0   BANK1   BANK2   BANK3   BANK4   BANK5   BANK6   BANK7   BANK8   BANK9  BANK10  BANK1
      +1  BANK12
  4397 ;;      Params:         0       0       0       0       0       0       0       0       0       0       0       0       
      +0       0
  4398 ;;      Locals:         0       0       0       0       0       0       0       0       0       0       0       0       
      +0       0
  4399 ;;      Temps:          0       0       0       0       0       0       0       0       0       0       0       0       
      +0       0
  4400 ;;      Totals:         0       0       0       0       0       0       0       0       0       0       0       0       
      +0       0
  4401 ;;Total ram usage:        0 bytes
  4402 ;; Hardware stack levels used:    1
  4403 ;; Hardware stack levels required when called:    3
  4404 ;; This function calls:
  4405 ;;		_EUSART_Write
  4406 ;; This function is called by:
  4407 ;;		_init_A
  4408 ;; This function uses a non-reentrant model
  4409 ;;
  4410                           
  4411                           
  4412                           ;psect for function _Partiel_Reset
  4413  03DC                     _Partiel_Reset:	
  4414                           
  4415                           ;blue.c: 20: EUSART_Write('S');
  4416                           
  4417                           ;incstack = 0
  4418                           ; Regs used in _Partiel_Reset: [wreg+fsr1l+fsr1h+status,2+status,0+pclath+cstack]
  4419  03DC  3053               	movlw	83
  4420  03DD  3183  2340  3183   	fcall	_EUSART_Write
  4421                           
  4422                           ;blue.c: 21: EUSART_Write('F');
  4423  03E0  3046               	movlw	70
  4424  03E1  3183  2340  3183   	fcall	_EUSART_Write
  4425                           
  4426                           ;blue.c: 22: EUSART_Write(',');
  4427  03E4  302C               	movlw	44
  4428  03E5  3183  2340  3183   	fcall	_EUSART_Write
  4429                           
  4430                           ;blue.c: 23: EUSART_Write('1');
  4431  03E8  3031               	movlw	49
  4432  03E9  3183  2340  3183   	fcall	_EUSART_Write
  4433                           
  4434                           ;blue.c: 25: EUSART_Write(13);
  4435  03EC  300D               	movlw	13
  4436  03ED  3183  2340  3183   	fcall	_EUSART_Write
  4437                           
  4438                           ;blue.c: 26: EUSART_Write(10);
  4439  03F0  300A               	movlw	10
  4440  03F1  3183  2340         	fcall	_EUSART_Write
  4441  03F3  0008               	return
  4442  03F4                     __end_of_Partiel_Reset:	
  4443                           
  4444                           	psect	text12
  4445  031C                     __ptext12:	
  4446 ;; *************** function _Config_Name *****************
  4447 ;; Defined at:
  4448 ;;		line 136 in file "blue.c"
  4449 ;; Parameters:    Size  Location     Type
  4450 ;;		None
  4451 ;; Auto vars:     Size  Location     Type
  4452 ;;		None
  4453 ;; Return value:  Size  Location     Type
  4454 ;;                  1    wreg      void 
  4455 ;; Registers used:
  4456 ;;		wreg, fsr1l, fsr1h, status,2, status,0, pclath, cstack
  4457 ;; Tracked objects:
  4458 ;;		On entry : 0/0
  4459 ;;		On exit  : 0/0
  4460 ;;		Unchanged: 0/0
  4461 ;; Data sizes:     COMMON   BANK0   BANK1   BANK2   BANK3   BANK4   BANK5   BANK6   BANK7   BANK8   BANK9  BANK10  BANK1
      +1  BANK12
  4462 ;;      Params:         0       0       0       0       0       0       0       0       0       0       0       0       
      +0       0
  4463 ;;      Locals:         0       0       0       0       0       0       0       0       0       0       0       0       
      +0       0
  4464 ;;      Temps:          0       0       0       0       0       0       0       0       0       0       0       0       
      +0       0
  4465 ;;      Totals:         0       0       0       0       0       0       0       0       0       0       0       0       
      +0       0
  4466 ;;Total ram usage:        0 bytes
  4467 ;; Hardware stack levels used:    1
  4468 ;; Hardware stack levels required when called:    3
  4469 ;; This function calls:
  4470 ;;		_EUSART_Write
  4471 ;; This function is called by:
  4472 ;;		_init_A
  4473 ;; This function uses a non-reentrant model
  4474 ;;
  4475                           
  4476                           
  4477                           ;psect for function _Config_Name
  4478  031C                     _Config_Name:	
  4479                           
  4480                           ;blue.c: 138: EUSART_Write('S');
  4481                           
  4482                           ;incstack = 0
  4483                           ; Regs used in _Config_Name: [wreg+fsr1l+fsr1h+status,2+status,0+pclath+cstack]
  4484  031C  3053               	movlw	83
  4485  031D  3183  2340  3183   	fcall	_EUSART_Write
  4486                           
  4487                           ;blue.c: 139: EUSART_Write('-');
  4488  0320  302D               	movlw	45
  4489  0321  3183  2340  3183   	fcall	_EUSART_Write
  4490                           
  4491                           ;blue.c: 140: EUSART_Write(',');
  4492  0324  302C               	movlw	44
  4493  0325  3183  2340  3183   	fcall	_EUSART_Write
  4494                           
  4495                           ;blue.c: 143: EUSART_Write('2');
  4496  0328  3032               	movlw	50
  4497  0329  3183  2340  3183   	fcall	_EUSART_Write
  4498                           
  4499                           ;blue.c: 144: EUSART_Write('D');
  4500  032C  3044               	movlw	68
  4501  032D  3183  2340  3183   	fcall	_EUSART_Write
  4502                           
  4503                           ;blue.c: 145: EUSART_Write('1');
  4504  0330  3031               	movlw	49
  4505  0331  3183  2340  3183   	fcall	_EUSART_Write
  4506                           
  4507                           ;blue.c: 146: EUSART_Write('5');
  4508  0334  3035               	movlw	53
  4509  0335  3183  2340  3183   	fcall	_EUSART_Write
  4510                           
  4511                           ;blue.c: 149: EUSART_Write(13);
  4512  0338  300D               	movlw	13
  4513  0339  3183  2340  3183   	fcall	_EUSART_Write
  4514                           
  4515                           ;blue.c: 150: EUSART_Write(10);
  4516  033C  300A               	movlw	10
  4517  033D  3183  2340         	fcall	_EUSART_Write
  4518  033F  0008               	return
  4519  0340                     __end_of_Config_Name:	
  4520                           
  4521                           	psect	text13
  4522  0237                     __ptext13:	
  4523 ;; *************** function _connexion *****************
  4524 ;; Defined at:
  4525 ;;		line 154 in file "blue.c"
  4526 ;; Parameters:    Size  Location     Type
  4527 ;;		None
  4528 ;; Auto vars:     Size  Location     Type
  4529 ;;		None
  4530 ;; Return value:  Size  Location     Type
  4531 ;;                  1    wreg      void 
  4532 ;; Registers used:
  4533 ;;		wreg, fsr1l, fsr1h, status,2, status,0, pclath, cstack
  4534 ;; Tracked objects:
  4535 ;;		On entry : 0/0
  4536 ;;		On exit  : 0/0
  4537 ;;		Unchanged: 0/0
  4538 ;; Data sizes:     COMMON   BANK0   BANK1   BANK2   BANK3   BANK4   BANK5   BANK6   BANK7   BANK8   BANK9  BANK10  BANK1
      +1  BANK12
  4539 ;;      Params:         0       0       0       0       0       0       0       0       0       0       0       0       
      +0       0
  4540 ;;      Locals:         0       0       0       0       0       0       0       0       0       0       0       0       
      +0       0
  4541 ;;      Temps:          2       0       0       0       0       0       0       0       0       0       0       0       
      +0       0
  4542 ;;      Totals:         2       0       0       0       0       0       0       0       0       0       0       0       
      +0       0
  4543 ;;Total ram usage:        2 bytes
  4544 ;; Hardware stack levels used:    1
  4545 ;; Hardware stack levels required when called:    3
  4546 ;; This function calls:
  4547 ;;		_EUSART_Write
  4548 ;; This function is called by:
  4549 ;;		_main
  4550 ;; This function uses a non-reentrant model
  4551 ;;
  4552                           
  4553                           
  4554                           ;psect for function _connexion
  4555  0237                     _connexion:	
  4556                           
  4557                           ;blue.c: 156: EUSART_Write('E');
  4558                           
  4559                           ;incstack = 0
  4560                           ; Regs used in _connexion: [wreg+fsr1l+fsr1h+status,2+status,0+pclath+cstack]
  4561  0237  3045               	movlw	69
  4562  0238  3183  2340  3182   	fcall	_EUSART_Write
  4563                           
  4564                           ;blue.c: 157: EUSART_Write(',');
  4565  023B  302C               	movlw	44
  4566  023C  3183  2340  3182   	fcall	_EUSART_Write
  4567                           
  4568                           ;blue.c: 158: EUSART_Write('0');
  4569  023F  3030               	movlw	48
  4570  0240  3183  2340  3182   	fcall	_EUSART_Write
  4571                           
  4572                           ;blue.c: 159: EUSART_Write(',');
  4573  0243  302C               	movlw	44
  4574  0244  3183  2340  3182   	fcall	_EUSART_Write
  4575                           
  4576                           ;blue.c: 160: EUSART_Write('0');
  4577  0247  3030               	movlw	48
  4578  0248  3183  2340  3182   	fcall	_EUSART_Write
  4579                           
  4580                           ;blue.c: 161: EUSART_Write('0');
  4581  024B  3030               	movlw	48
  4582  024C  3183  2340  3182   	fcall	_EUSART_Write
  4583                           
  4584                           ;blue.c: 162: EUSART_Write('1');
  4585  024F  3031               	movlw	49
  4586  0250  3183  2340  3182   	fcall	_EUSART_Write
  4587                           
  4588                           ;blue.c: 163: EUSART_Write('E');
  4589  0253  3045               	movlw	69
  4590  0254  3183  2340  3182   	fcall	_EUSART_Write
  4591                           
  4592                           ;blue.c: 164: EUSART_Write('C');
  4593  0257  3043               	movlw	67
  4594  0258  3183  2340  3182   	fcall	_EUSART_Write
  4595                           
  4596                           ;blue.c: 165: EUSART_Write('0');
  4597  025B  3030               	movlw	48
  4598  025C  3183  2340  3182   	fcall	_EUSART_Write
  4599                           
  4600                           ;blue.c: 166: EUSART_Write('4');
  4601  025F  3034               	movlw	52
  4602  0260  3183  2340  3182   	fcall	_EUSART_Write
  4603                           
  4604                           ;blue.c: 167: EUSART_Write('1');
  4605  0263  3031               	movlw	49
  4606  0264  3183  2340  3182   	fcall	_EUSART_Write
  4607                           
  4608                           ;blue.c: 168: EUSART_Write('F');
  4609  0267  3046               	movlw	70
  4610  0268  3183  2340  3182   	fcall	_EUSART_Write
  4611                           
  4612                           ;blue.c: 169: EUSART_Write('1');
  4613  026B  3031               	movlw	49
  4614  026C  3183  2340  3182   	fcall	_EUSART_Write
  4615                           
  4616                           ;blue.c: 170: EUSART_Write('3');
  4617  026F  3033               	movlw	51
  4618  0270  3183  2340  3182   	fcall	_EUSART_Write
  4619                           
  4620                           ;blue.c: 171: EUSART_Write('4');
  4621  0273  3034               	movlw	52
  4622  0274  3183  2340  3182   	fcall	_EUSART_Write
  4623                           
  4624                           ;blue.c: 173: EUSART_Write(13);
  4625  0277  300D               	movlw	13
  4626  0278  3183  2340  3182   	fcall	_EUSART_Write
  4627                           
  4628                           ;blue.c: 174: EUSART_Write(10);
  4629  027B  300A               	movlw	10
  4630  027C  3183  2340  3182   	fcall	_EUSART_Write
  4631                           
  4632                           ;blue.c: 177: _delay((unsigned long)((100)*(16000000/4000.0)));
  4633  027F  3003               	movlw	3
  4634  0280  00F5               	movwf	??_connexion+1
  4635  0281  3008               	movlw	8
  4636  0282  00F4               	movwf	??_connexion
  4637  0283  3077               	movlw	119
  4638  0284                     u707:	
  4639  0284  0B89               	decfsz	9,f
  4640  0285  2A84               	goto	u707
  4641  0286  0BF4               	decfsz	??_connexion,f
  4642  0287  2A84               	goto	u707
  4643  0288  0BF5               	decfsz	??_connexion+1,f
  4644  0289  2A84               	goto	u707
  4645  028A  0000               	nop
  4646  028B  0008               	return
  4647  028C                     __end_of_connexion:	
  4648                           
  4649                           	psect	text14
  4650  0340                     __ptext14:	
  4651 ;; *************** function _EUSART_Write *****************
  4652 ;; Defined at:
  4653 ;;		line 148 in file "mcc_generated_files/eusart.c"
  4654 ;; Parameters:    Size  Location     Type
  4655 ;;  txData          1    wreg     unsigned char 
  4656 ;; Auto vars:     Size  Location     Type
  4657 ;;  txData          1    3[COMMON] unsigned char 
  4658 ;; Return value:  Size  Location     Type
  4659 ;;                  1    wreg      void 
  4660 ;; Registers used:
  4661 ;;		wreg, fsr1l, fsr1h, status,2, status,0
  4662 ;; Tracked objects:
  4663 ;;		On entry : 0/0
  4664 ;;		On exit  : 0/0
  4665 ;;		Unchanged: 0/0
  4666 ;; Data sizes:     COMMON   BANK0   BANK1   BANK2   BANK3   BANK4   BANK5   BANK6   BANK7   BANK8   BANK9  BANK10  BANK1
      +1  BANK12
  4667 ;;      Params:         0       0       0       0       0       0       0       0       0       0       0       0       
      +0       0
  4668 ;;      Locals:         1       0       0       0       0       0       0       0       0       0       0       0       
      +0       0
  4669 ;;      Temps:          1       0       0       0       0       0       0       0       0       0       0       0       
      +0       0
  4670 ;;      Totals:         2       0       0       0       0       0       0       0       0       0       0       0       
      +0       0
  4671 ;;Total ram usage:        2 bytes
  4672 ;; Hardware stack levels used:    1
  4673 ;; Hardware stack levels required when called:    2
  4674 ;; This function calls:
  4675 ;;		Nothing
  4676 ;; This function is called by:
  4677 ;;		_main
  4678 ;;		_Partiel_Reset
  4679 ;;		_Set_Features
  4680 ;;		_Set_Mode
  4681 ;;		_Reboot
  4682 ;;		_Turn_On
  4683 ;;		_Scan
  4684 ;;		_StopScan
  4685 ;;		_Config_Name
  4686 ;;		_connexion
  4687 ;;		_remote
  4688 ;;		_WriteOnBt
  4689 ;; This function uses a non-reentrant model
  4690 ;;
  4691                           
  4692                           
  4693                           ;psect for function _EUSART_Write
  4694  0340                     _EUSART_Write:	
  4695                           
  4696                           ;incstack = 0
  4697                           ; Regs used in _EUSART_Write: [wreg+fsr1l+fsr1h+status,2+status,0]
  4698                           ;EUSART_Write@txData stored from wreg
  4699  0340  00F3               	movwf	EUSART_Write@txData
  4700  0341                     l1024:	
  4701                           ;eusart.c: 151: {
  4702                           
  4703                           ;eusart.c: 150: while(0 == eusartTxBufferRemaining)
  4704                           
  4705  0341  0020               	movlb	0	; select bank0
  4706  0342  086A               	movf	_eusartTxBufferRemaining,w	;volatile
  4707  0343  1903               	btfsc	3,2
  4708  0344  2B41               	goto	l1024
  4709                           
  4710                           ;eusart.c: 152: }
  4711                           ;eusart.c: 154: if(0 == PIE1bits.TXIE)
  4712  0345  0021               	movlb	1	; select bank1
  4713  0346  1A10               	btfsc	16,4	;volatile
  4714  0347  2B4C               	goto	l73
  4715                           
  4716                           ;eusart.c: 155: {
  4717                           ;eusart.c: 156: TX1REG = txData;
  4718  0348  0873               	movf	EUSART_Write@txData,w
  4719  0349  0023               	movlb	3	; select bank3
  4720  034A  009A               	movwf	26	;volatile
  4721                           
  4722                           ;eusart.c: 157: }
  4723  034B  2B60               	goto	l1038
  4724  034C                     l73:	
  4725                           
  4726                           ;eusart.c: 158: else
  4727                           ;eusart.c: 159: {
  4728                           ;eusart.c: 160: PIE1bits.TXIE = 0;
  4729  034C  1210               	bcf	16,4	;volatile
  4730                           
  4731                           ;eusart.c: 161: eusartTxBuffer[eusartTxHead++] = txData;
  4732  034D  0873               	movf	EUSART_Write@txData,w
  4733  034E  00F2               	movwf	??_EUSART_Write
  4734  034F  087B               	movf	_eusartTxHead,w
  4735  0350  3EE3               	addlw	(low (_eusartTxBuffer| 0))& (0+255)
  4736  0351  0086               	movwf	6
  4737  0352  0187               	clrf	7
  4738  0353  0872               	movf	??_EUSART_Write,w
  4739  0354  0081               	movwf	1
  4740  0355  3001               	movlw	1
  4741  0356  00F2               	movwf	??_EUSART_Write
  4742  0357  0872               	movf	??_EUSART_Write,w
  4743  0358  07FB               	addwf	_eusartTxHead,f	;volatile
  4744                           
  4745                           ;eusart.c: 162: if(sizeof(eusartTxBuffer) <= eusartTxHead)
  4746  0359  3008               	movlw	8
  4747  035A  027B               	subwf	_eusartTxHead,w	;volatile
  4748  035B  1803               	btfsc	3,0
  4749                           
  4750                           ;eusart.c: 163: {
  4751                           ;eusart.c: 164: eusartTxHead = 0;
  4752  035C  01FB               	clrf	_eusartTxHead	;volatile
  4753                           
  4754                           ;eusart.c: 165: }
  4755                           ;eusart.c: 166: eusartTxBufferRemaining--;
  4756  035D  3001               	movlw	1
  4757  035E  0020               	movlb	0	; select bank0
  4758  035F  02EA               	subwf	_eusartTxBufferRemaining,f	;volatile
  4759  0360                     l1038:	
  4760                           
  4761                           ;eusart.c: 167: }
  4762                           ;eusart.c: 168: PIE1bits.TXIE = 1;
  4763  0360  0021               	movlb	1	; select bank1
  4764  0361  1610               	bsf	16,4	;volatile
  4765  0362  0008               	return
  4766  0363                     __end_of_EUSART_Write:	
  4767                           
  4768                           	psect	text15
  4769  0440                     __ptext15:	
  4770 ;; *************** function _SYSTEM_Initialize *****************
  4771 ;; Defined at:
  4772 ;;		line 50 in file "mcc_generated_files/mcc.c"
  4773 ;; Parameters:    Size  Location     Type
  4774 ;;		None
  4775 ;; Auto vars:     Size  Location     Type
  4776 ;;		None
  4777 ;; Return value:  Size  Location     Type
  4778 ;;                  1    wreg      void 
  4779 ;; Registers used:
  4780 ;;		wreg, status,2, status,0, pclath, cstack
  4781 ;; Tracked objects:
  4782 ;;		On entry : 0/0
  4783 ;;		On exit  : 0/0
  4784 ;;		Unchanged: 0/0
  4785 ;; Data sizes:     COMMON   BANK0   BANK1   BANK2   BANK3   BANK4   BANK5   BANK6   BANK7   BANK8   BANK9  BANK10  BANK1
      +1  BANK12
  4786 ;;      Params:         0       0       0       0       0       0       0       0       0       0       0       0       
      +0       0
  4787 ;;      Locals:         0       0       0       0       0       0       0       0       0       0       0       0       
      +0       0
  4788 ;;      Temps:          0       0       0       0       0       0       0       0       0       0       0       0       
      +0       0
  4789 ;;      Totals:         0       0       0       0       0       0       0       0       0       0       0       0       
      +0       0
  4790 ;;Total ram usage:        0 bytes
  4791 ;; Hardware stack levels used:    1
  4792 ;; Hardware stack levels required when called:    4
  4793 ;; This function calls:
  4794 ;;		_EUSART_Initialize
  4795 ;;		_OSCILLATOR_Initialize
  4796 ;;		_PIN_MANAGER_Initialize
  4797 ;; This function is called by:
  4798 ;;		_main
  4799 ;; This function uses a non-reentrant model
  4800 ;;
  4801                           
  4802                           
  4803                           ;psect for function _SYSTEM_Initialize
  4804  0440                     _SYSTEM_Initialize:	
  4805                           
  4806                           ;mcc.c: 52: PIN_MANAGER_Initialize();
  4807                           
  4808                           ;incstack = 0
  4809                           ; Regs used in _SYSTEM_Initialize: [wreg+status,2+status,0+pclath+cstack]
  4810  0440  3183  2363  3184   	fcall	_PIN_MANAGER_Initialize
  4811                           
  4812                           ;mcc.c: 53: OSCILLATOR_Initialize();
  4813  0443  3184  2449  3184   	fcall	_OSCILLATOR_Initialize
  4814                           
  4815                           ;mcc.c: 54: EUSART_Initialize();
  4816  0446  3182  22F4         	fcall	_EUSART_Initialize
  4817  0448  0008               	return
  4818  0449                     __end_of_SYSTEM_Initialize:	
  4819                           
  4820                           	psect	text16
  4821  0363                     __ptext16:	
  4822 ;; *************** function _PIN_MANAGER_Initialize *****************
  4823 ;; Defined at:
  4824 ;;		line 57 in file "mcc_generated_files/pin_manager.c"
  4825 ;; Parameters:    Size  Location     Type
  4826 ;;		None
  4827 ;; Auto vars:     Size  Location     Type
  4828 ;;		None
  4829 ;; Return value:  Size  Location     Type
  4830 ;;                  1    wreg      void 
  4831 ;; Registers used:
  4832 ;;		wreg, status,2
  4833 ;; Tracked objects:
  4834 ;;		On entry : 0/0
  4835 ;;		On exit  : 0/0
  4836 ;;		Unchanged: 0/0
  4837 ;; Data sizes:     COMMON   BANK0   BANK1   BANK2   BANK3   BANK4   BANK5   BANK6   BANK7   BANK8   BANK9  BANK10  BANK1
      +1  BANK12
  4838 ;;      Params:         0       0       0       0       0       0       0       0       0       0       0       0       
      +0       0
  4839 ;;      Locals:         0       0       0       0       0       0       0       0       0       0       0       0       
      +0       0
  4840 ;;      Temps:          0       0       0       0       0       0       0       0       0       0       0       0       
      +0       0
  4841 ;;      Totals:         0       0       0       0       0       0       0       0       0       0       0       0       
      +0       0
  4842 ;;Total ram usage:        0 bytes
  4843 ;; Hardware stack levels used:    1
  4844 ;; Hardware stack levels required when called:    2
  4845 ;; This function calls:
  4846 ;;		Nothing
  4847 ;; This function is called by:
  4848 ;;		_SYSTEM_Initialize
  4849 ;; This function uses a non-reentrant model
  4850 ;;
  4851                           
  4852                           
  4853                           ;psect for function _PIN_MANAGER_Initialize
  4854  0363                     _PIN_MANAGER_Initialize:	
  4855                           
  4856                           ;pin_manager.c: 62: LATA = 0x00;
  4857                           
  4858                           ;incstack = 0
  4859                           ; Regs used in _PIN_MANAGER_Initialize: [wreg+status,2]
  4860  0363  0022               	movlb	2	; select bank2
  4861  0364  018C               	clrf	12	;volatile
  4862                           
  4863                           ;pin_manager.c: 63: LATB = 0x00;
  4864  0365  018D               	clrf	13	;volatile
  4865                           
  4866                           ;pin_manager.c: 64: LATC = 0x00;
  4867  0366  018E               	clrf	14	;volatile
  4868                           
  4869                           ;pin_manager.c: 69: TRISA = 0x11;
  4870  0367  3011               	movlw	17
  4871  0368  0021               	movlb	1	; select bank1
  4872  0369  008C               	movwf	12	;volatile
  4873                           
  4874                           ;pin_manager.c: 70: TRISB = 0x70;
  4875  036A  3070               	movlw	112
  4876  036B  008D               	movwf	13	;volatile
  4877                           
  4878                           ;pin_manager.c: 71: TRISC = 0xDF;
  4879  036C  30DF               	movlw	223
  4880  036D  008E               	movwf	14	;volatile
  4881                           
  4882                           ;pin_manager.c: 76: ANSELC = 0xCF;
  4883  036E  30CF               	movlw	207
  4884  036F  0023               	movlb	3	; select bank3
  4885  0370  008E               	movwf	14	;volatile
  4886                           
  4887                           ;pin_manager.c: 77: ANSELB = 0xD0;
  4888  0371  30D0               	movlw	208
  4889  0372  008D               	movwf	13	;volatile
  4890                           
  4891                           ;pin_manager.c: 78: ANSELA = 0x17;
  4892  0373  3017               	movlw	23
  4893  0374  008C               	movwf	12	;volatile
  4894                           
  4895                           ;pin_manager.c: 83: WPUB = 0x00;
  4896  0375  0024               	movlb	4	; select bank4
  4897  0376  018D               	clrf	13	;volatile
  4898                           
  4899                           ;pin_manager.c: 84: WPUA = 0x00;
  4900  0377  018C               	clrf	12	;volatile
  4901                           
  4902                           ;pin_manager.c: 85: WPUC = 0x00;
  4903  0378  018E               	clrf	14	;volatile
  4904                           
  4905                           ;pin_manager.c: 86: OPTION_REGbits.nWPUEN = 1;
  4906  0379  0021               	movlb	1	; select bank1
  4907  037A  1795               	bsf	21,7	;volatile
  4908                           
  4909                           ;pin_manager.c: 91: ODCONA = 0x00;
  4910  037B  0025               	movlb	5	; select bank5
  4911  037C  018C               	clrf	12	;volatile
  4912                           
  4913                           ;pin_manager.c: 92: ODCONB = 0x00;
  4914  037D  018D               	clrf	13	;volatile
  4915                           
  4916                           ;pin_manager.c: 93: ODCONC = 0x00;
  4917  037E  018E               	clrf	14	;volatile
  4918                           
  4919                           ;pin_manager.c: 102: RXPPS = 0x0D;
  4920  037F  300D               	movlw	13
  4921  0380  003C               	movlb	28	; select bank28
  4922  0381  00A4               	movwf	36	;volatile
  4923                           
  4924                           ;pin_manager.c: 103: RB7PPS = 0x12;
  4925  0382  3012               	movlw	18
  4926  0383  003D               	movlb	29	; select bank29
  4927  0384  009F               	movwf	31	;volatile
  4928  0385  0008               	return
  4929  0386                     __end_of_PIN_MANAGER_Initialize:	
  4930                           
  4931                           	psect	text17
  4932  0449                     __ptext17:	
  4933 ;; *************** function _OSCILLATOR_Initialize *****************
  4934 ;; Defined at:
  4935 ;;		line 57 in file "mcc_generated_files/mcc.c"
  4936 ;; Parameters:    Size  Location     Type
  4937 ;;		None
  4938 ;; Auto vars:     Size  Location     Type
  4939 ;;		None
  4940 ;; Return value:  Size  Location     Type
  4941 ;;                  1    wreg      void 
  4942 ;; Registers used:
  4943 ;;		wreg, status,2
  4944 ;; Tracked objects:
  4945 ;;		On entry : 0/0
  4946 ;;		On exit  : 0/0
  4947 ;;		Unchanged: 0/0
  4948 ;; Data sizes:     COMMON   BANK0   BANK1   BANK2   BANK3   BANK4   BANK5   BANK6   BANK7   BANK8   BANK9  BANK10  BANK1
      +1  BANK12
  4949 ;;      Params:         0       0       0       0       0       0       0       0       0       0       0       0       
      +0       0
  4950 ;;      Locals:         0       0       0       0       0       0       0       0       0       0       0       0       
      +0       0
  4951 ;;      Temps:          0       0       0       0       0       0       0       0       0       0       0       0       
      +0       0
  4952 ;;      Totals:         0       0       0       0       0       0       0       0       0       0       0       0       
      +0       0
  4953 ;;Total ram usage:        0 bytes
  4954 ;; Hardware stack levels used:    1
  4955 ;; Hardware stack levels required when called:    2
  4956 ;; This function calls:
  4957 ;;		Nothing
  4958 ;; This function is called by:
  4959 ;;		_SYSTEM_Initialize
  4960 ;; This function uses a non-reentrant model
  4961 ;;
  4962                           
  4963                           
  4964                           ;psect for function _OSCILLATOR_Initialize
  4965  0449                     _OSCILLATOR_Initialize:	
  4966                           
  4967                           ;mcc.c: 60: OSCCON = 0x7A;
  4968                           
  4969                           ;incstack = 0
  4970                           ; Regs used in _OSCILLATOR_Initialize: [wreg+status,2]
  4971  0449  307A               	movlw	122
  4972  044A  0021               	movlb	1	; select bank1
  4973  044B  0099               	movwf	25	;volatile
  4974                           
  4975                           ;mcc.c: 62: OSCTUNE = 0x00;
  4976  044C  0198               	clrf	24	;volatile
  4977                           
  4978                           ;mcc.c: 64: BORCON = 0x00;
  4979  044D  0022               	movlb	2	; select bank2
  4980  044E  0196               	clrf	22	;volatile
  4981  044F  0008               	return
  4982  0450                     __end_of_OSCILLATOR_Initialize:	
  4983                           
  4984                           	psect	text18
  4985  02F4                     __ptext18:	
  4986 ;; *************** function _EUSART_Initialize *****************
  4987 ;; Defined at:
  4988 ;;		line 75 in file "mcc_generated_files/eusart.c"
  4989 ;; Parameters:    Size  Location     Type
  4990 ;;		None
  4991 ;; Auto vars:     Size  Location     Type
  4992 ;;		None
  4993 ;; Return value:  Size  Location     Type
  4994 ;;                  1    wreg      void 
  4995 ;; Registers used:
  4996 ;;		wreg, status,2, status,0, pclath, cstack
  4997 ;; Tracked objects:
  4998 ;;		On entry : 0/0
  4999 ;;		On exit  : 0/0
  5000 ;;		Unchanged: 0/0
  5001 ;; Data sizes:     COMMON   BANK0   BANK1   BANK2   BANK3   BANK4   BANK5   BANK6   BANK7   BANK8   BANK9  BANK10  BANK1
      +1  BANK12
  5002 ;;      Params:         0       0       0       0       0       0       0       0       0       0       0       0       
      +0       0
  5003 ;;      Locals:         0       0       0       0       0       0       0       0       0       0       0       0       
      +0       0
  5004 ;;      Temps:          1       0       0       0       0       0       0       0       0       0       0       0       
      +0       0
  5005 ;;      Totals:         1       0       0       0       0       0       0       0       0       0       0       0       
      +0       0
  5006 ;;Total ram usage:        1 bytes
  5007 ;; Hardware stack levels used:    1
  5008 ;; Hardware stack levels required when called:    3
  5009 ;; This function calls:
  5010 ;;		_EUSART_SetRxInterruptHandler
  5011 ;;		_EUSART_SetTxInterruptHandler
  5012 ;; This function is called by:
  5013 ;;		_SYSTEM_Initialize
  5014 ;; This function uses a non-reentrant model
  5015 ;;
  5016                           
  5017                           
  5018                           ;psect for function _EUSART_Initialize
  5019  02F4                     _EUSART_Initialize:	
  5020                           
  5021                           ;eusart.c: 78: PIE1bits.RCIE = 0;
  5022                           
  5023                           ;incstack = 0
  5024                           ; Regs used in _EUSART_Initialize: [wreg+status,2+status,0+pclath+cstack]
  5025  02F4  0021               	movlb	1	; select bank1
  5026  02F5  1290               	bcf	16,5	;volatile
  5027                           
  5028                           ;eusart.c: 79: EUSART_SetRxInterruptHandler(EUSART_Receive_ISR);
  5029  02F6  30C0               	movlw	low _EUSART_Receive_ISR
  5030  02F7  00F2               	movwf	EUSART_SetRxInterruptHandler@interruptHandler
  5031  02F8  3003               	movlw	high _EUSART_Receive_ISR
  5032  02F9  00F3               	movwf	EUSART_SetRxInterruptHandler@interruptHandler+1
  5033  02FA  3184  245C  3182   	fcall	_EUSART_SetRxInterruptHandler
  5034                           
  5035                           ;eusart.c: 80: PIE1bits.TXIE = 0;
  5036  02FD  0021               	movlb	1	; select bank1
  5037  02FE  1210               	bcf	16,4	;volatile
  5038                           
  5039                           ;eusart.c: 81: EUSART_SetTxInterruptHandler(EUSART_Transmit_ISR);
  5040  02FF  30A3               	movlw	low _EUSART_Transmit_ISR
  5041  0300  00F2               	movwf	EUSART_SetTxInterruptHandler@interruptHandler
  5042  0301  3003               	movlw	high _EUSART_Transmit_ISR
  5043  0302  00F3               	movwf	EUSART_SetTxInterruptHandler@interruptHandler+1
  5044  0303  3184  2456         	fcall	_EUSART_SetTxInterruptHandler
  5045                           
  5046                           ;eusart.c: 85: BAUD1CON = 0x08;
  5047  0305  3008               	movlw	8
  5048  0306  0023               	movlb	3	; select bank3
  5049  0307  009F               	movwf	31	;volatile
  5050                           
  5051                           ;eusart.c: 88: RC1STA = 0x90;
  5052  0308  3090               	movlw	144
  5053  0309  009D               	movwf	29	;volatile
  5054                           
  5055                           ;eusart.c: 91: TX1STA = 0x24;
  5056  030A  3024               	movlw	36
  5057  030B  009E               	movwf	30	;volatile
  5058                           
  5059                           ;eusart.c: 94: SPBRGL = 0x22;
  5060  030C  3022               	movlw	34
  5061  030D  009B               	movwf	27	;volatile
  5062                           
  5063                           ;eusart.c: 97: SPBRGH = 0x00;
  5064  030E  019C               	clrf	28	;volatile
  5065                           
  5066                           ;eusart.c: 101: eusartTxHead = 0;
  5067  030F  01FB               	clrf	_eusartTxHead	;volatile
  5068                           
  5069                           ;eusart.c: 102: eusartTxTail = 0;
  5070  0310  0020               	movlb	0	; select bank0
  5071  0311  01EF               	clrf	_eusartTxTail	;volatile
  5072                           
  5073                           ;eusart.c: 103: eusartTxBufferRemaining = sizeof(eusartTxBuffer);
  5074  0312  3008               	movlw	8
  5075  0313  00F4               	movwf	??_EUSART_Initialize
  5076  0314  0874               	movf	??_EUSART_Initialize,w
  5077  0315  00EA               	movwf	_eusartTxBufferRemaining	;volatile
  5078                           
  5079                           ;eusart.c: 105: eusartRxHead = 0;
  5080  0316  01EE               	clrf	_eusartRxHead	;volatile
  5081                           
  5082                           ;eusart.c: 106: eusartRxTail = 0;
  5083  0317  01ED               	clrf	_eusartRxTail	;volatile
  5084                           
  5085                           ;eusart.c: 107: eusartRxCount = 0;
  5086  0318  01FA               	clrf	_eusartRxCount	;volatile
  5087                           
  5088                           ;eusart.c: 110: PIE1bits.RCIE = 1;
  5089  0319  0021               	movlb	1	; select bank1
  5090  031A  1690               	bsf	16,5	;volatile
  5091  031B  0008               	return
  5092  031C                     __end_of_EUSART_Initialize:	
  5093                           
  5094                           	psect	text19
  5095  0456                     __ptext19:	
  5096 ;; *************** function _EUSART_SetTxInterruptHandler *****************
  5097 ;; Defined at:
  5098 ;;		line 211 in file "mcc_generated_files/eusart.c"
  5099 ;; Parameters:    Size  Location     Type
  5100 ;;  interruptHan    2    2[COMMON] PTR FTN()void 
  5101 ;;		 -> EUSART_Transmit_ISR(1), 
  5102 ;; Auto vars:     Size  Location     Type
  5103 ;;		None
  5104 ;; Return value:  Size  Location     Type
  5105 ;;                  1    wreg      void 
  5106 ;; Registers used:
  5107 ;;		wreg
  5108 ;; Tracked objects:
  5109 ;;		On entry : 0/0
  5110 ;;		On exit  : 0/0
  5111 ;;		Unchanged: 0/0
  5112 ;; Data sizes:     COMMON   BANK0   BANK1   BANK2   BANK3   BANK4   BANK5   BANK6   BANK7   BANK8   BANK9  BANK10  BANK1
      +1  BANK12
  5113 ;;      Params:         2       0       0       0       0       0       0       0       0       0       0       0       
      +0       0
  5114 ;;      Locals:         0       0       0       0       0       0       0       0       0       0       0       0       
      +0       0
  5115 ;;      Temps:          0       0       0       0       0       0       0       0       0       0       0       0       
      +0       0
  5116 ;;      Totals:         2       0       0       0       0       0       0       0       0       0       0       0       
      +0       0
  5117 ;;Total ram usage:        2 bytes
  5118 ;; Hardware stack levels used:    1
  5119 ;; Hardware stack levels required when called:    2
  5120 ;; This function calls:
  5121 ;;		Nothing
  5122 ;; This function is called by:
  5123 ;;		_EUSART_Initialize
  5124 ;; This function uses a non-reentrant model
  5125 ;;
  5126                           
  5127                           
  5128                           ;psect for function _EUSART_SetTxInterruptHandler
  5129  0456                     _EUSART_SetTxInterruptHandler:	
  5130                           
  5131                           ;eusart.c: 212: EUSART_TxDefaultInterruptHandler = interruptHandler;
  5132                           
  5133                           ;incstack = 0
  5134                           ; Regs used in _EUSART_SetTxInterruptHandler: [wreg]
  5135  0456  0873               	movf	EUSART_SetTxInterruptHandler@interruptHandler+1,w
  5136  0457  0020               	movlb	0	; select bank0
  5137  0458  00E9               	movwf	_EUSART_TxDefaultInterruptHandler+1
  5138  0459  0872               	movf	EUSART_SetTxInterruptHandler@interruptHandler,w
  5139  045A  00E8               	movwf	_EUSART_TxDefaultInterruptHandler
  5140  045B  0008               	return
  5141  045C                     __end_of_EUSART_SetTxInterruptHandler:	
  5142                           
  5143                           	psect	text20
  5144  045C                     __ptext20:	
  5145 ;; *************** function _EUSART_SetRxInterruptHandler *****************
  5146 ;; Defined at:
  5147 ;;		line 215 in file "mcc_generated_files/eusart.c"
  5148 ;; Parameters:    Size  Location     Type
  5149 ;;  interruptHan    2    2[COMMON] PTR FTN()void 
  5150 ;;		 -> EUSART_Receive_ISR(1), 
  5151 ;; Auto vars:     Size  Location     Type
  5152 ;;		None
  5153 ;; Return value:  Size  Location     Type
  5154 ;;                  1    wreg      void 
  5155 ;; Registers used:
  5156 ;;		wreg
  5157 ;; Tracked objects:
  5158 ;;		On entry : 0/0
  5159 ;;		On exit  : 0/0
  5160 ;;		Unchanged: 0/0
  5161 ;; Data sizes:     COMMON   BANK0   BANK1   BANK2   BANK3   BANK4   BANK5   BANK6   BANK7   BANK8   BANK9  BANK10  BANK1
      +1  BANK12
  5162 ;;      Params:         2       0       0       0       0       0       0       0       0       0       0       0       
      +0       0
  5163 ;;      Locals:         0       0       0       0       0       0       0       0       0       0       0       0       
      +0       0
  5164 ;;      Temps:          0       0       0       0       0       0       0       0       0       0       0       0       
      +0       0
  5165 ;;      Totals:         2       0       0       0       0       0       0       0       0       0       0       0       
      +0       0
  5166 ;;Total ram usage:        2 bytes
  5167 ;; Hardware stack levels used:    1
  5168 ;; Hardware stack levels required when called:    2
  5169 ;; This function calls:
  5170 ;;		Nothing
  5171 ;; This function is called by:
  5172 ;;		_EUSART_Initialize
  5173 ;; This function uses a non-reentrant model
  5174 ;;
  5175                           
  5176                           
  5177                           ;psect for function _EUSART_SetRxInterruptHandler
  5178  045C                     _EUSART_SetRxInterruptHandler:	
  5179                           
  5180                           ;eusart.c: 216: EUSART_RxDefaultInterruptHandler = interruptHandler;
  5181                           
  5182                           ;incstack = 0
  5183                           ; Regs used in _EUSART_SetRxInterruptHandler: [wreg]
  5184  045C  0873               	movf	EUSART_SetRxInterruptHandler@interruptHandler+1,w
  5185  045D  0020               	movlb	0	; select bank0
  5186  045E  00E7               	movwf	_EUSART_RxDefaultInterruptHandler+1
  5187  045F  0872               	movf	EUSART_SetRxInterruptHandler@interruptHandler,w
  5188  0460  00E6               	movwf	_EUSART_RxDefaultInterruptHandler
  5189  0461  0008               	return
  5190  0462                     __end_of_EUSART_SetRxInterruptHandler:	
  5191                           
  5192                           	psect	intentry
  5193  0004                     __pintentry:	
  5194 ;; *************** function _INTERRUPT_InterruptManager *****************
  5195 ;; Defined at:
  5196 ;;		line 52 in file "mcc_generated_files/interrupt_manager.c"
  5197 ;; Parameters:    Size  Location     Type
  5198 ;;		None
  5199 ;; Auto vars:     Size  Location     Type
  5200 ;;		None
  5201 ;; Return value:  Size  Location     Type
  5202 ;;                  1    wreg      void 
  5203 ;; Registers used:
  5204 ;;		wreg, fsr1l, fsr1h, status,2, status,0, pclath, cstack
  5205 ;; Tracked objects:
  5206 ;;		On entry : 0/0
  5207 ;;		On exit  : 0/0
  5208 ;;		Unchanged: 0/0
  5209 ;; Data sizes:     COMMON   BANK0   BANK1   BANK2   BANK3   BANK4   BANK5   BANK6   BANK7   BANK8   BANK9  BANK10  BANK1
      +1  BANK12
  5210 ;;      Params:         0       0       0       0       0       0       0       0       0       0       0       0       
      +0       0
  5211 ;;      Locals:         0       0       0       0       0       0       0       0       0       0       0       0       
      +0       0
  5212 ;;      Temps:          1       0       0       0       0       0       0       0       0       0       0       0       
      +0       0
  5213 ;;      Totals:         1       0       0       0       0       0       0       0       0       0       0       0       
      +0       0
  5214 ;;Total ram usage:        1 bytes
  5215 ;; Hardware stack levels used:    1
  5216 ;; Hardware stack levels required when called:    1
  5217 ;; This function calls:
  5218 ;;		Absolute function
  5219 ;;		_EUSART_Receive_ISR
  5220 ;;		_EUSART_Transmit_ISR
  5221 ;; This function is called by:
  5222 ;;		Interrupt level 1
  5223 ;; This function uses a non-reentrant model
  5224 ;;
  5225                           
  5226  0004                     _INTERRUPT_InterruptManager:	
  5227                           
  5228                           ;incstack = 0
  5229  0004  147E               	bsf	126,0	;set compiler interrupt flag (level 1)
  5230                           
  5231                           ; Regs used in _INTERRUPT_InterruptManager: [wreg+fsr1l+fsr1h+status,2+status,0+pclath+c
      +                          stack]
  5232  0005  3180               	pagesel	$
  5233  0006  0020               	movlb	0	; select bank0
  5234  0007  087F               	movf	127,w
  5235  0008  00F1               	movwf	??_INTERRUPT_InterruptManager
  5236                           
  5237                           ;interrupt_manager.c: 55: if(INTCONbits.PEIE == 1)
  5238  0009  1F0B               	btfss	11,6	;volatile
  5239  000A  2822               	goto	i1l114
  5240                           
  5241                           ;interrupt_manager.c: 56: {
  5242                           ;interrupt_manager.c: 57: if(PIE1bits.TXIE == 1 && PIR1bits.TXIF == 1)
  5243  000B  0021               	movlb	1	; select bank1
  5244  000C  1E10               	btfss	16,4	;volatile
  5245  000D  2817               	goto	i1l109
  5246  000E  0020               	movlb	0	; select bank0
  5247  000F  1E10               	btfss	16,4	;volatile
  5248  0010  2817               	goto	i1l109
  5249                           
  5250                           ;interrupt_manager.c: 58: {
  5251                           ;interrupt_manager.c: 59: EUSART_TxDefaultInterruptHandler();
  5252  0011  0869               	movf	_EUSART_TxDefaultInterruptHandler+1,w
  5253  0012  008A               	movwf	10
  5254  0013  0868               	movf	_EUSART_TxDefaultInterruptHandler,w
  5255  0014  000A               	callw
  5256  0015  3180               	pagesel	$
  5257                           
  5258                           ;interrupt_manager.c: 60: }
  5259  0016  2822               	goto	i1l114
  5260  0017                     i1l109:	
  5261                           
  5262                           ;interrupt_manager.c: 61: else if(PIE1bits.RCIE == 1 && PIR1bits.RCIF == 1)
  5263  0017  0021               	movlb	1	; select bank1
  5264  0018  1E90               	btfss	16,5	;volatile
  5265  0019  2822               	goto	i1l114
  5266  001A  0020               	movlb	0	; select bank0
  5267  001B  1E90               	btfss	16,5	;volatile
  5268  001C  2822               	goto	i1l114
  5269                           
  5270                           ;interrupt_manager.c: 62: {
  5271                           ;interrupt_manager.c: 63: EUSART_RxDefaultInterruptHandler();
  5272  001D  0867               	movf	_EUSART_RxDefaultInterruptHandler+1,w
  5273  001E  008A               	movwf	10
  5274  001F  0866               	movf	_EUSART_RxDefaultInterruptHandler,w
  5275  0020  000A               	callw
  5276  0021  3180               	pagesel	$
  5277  0022                     i1l114:	
  5278                           ;interrupt_manager.c: 70: else
  5279                           ;interrupt_manager.c: 71: {
  5280                           
  5281                           ;interrupt_manager.c: 68: }
  5282                           ;interrupt_manager.c: 69: }
  5283                           
  5284                           ;interrupt_manager.c: 65: else
  5285                           ;interrupt_manager.c: 66: {
  5286                           
  5287                           ;interrupt_manager.c: 64: }
  5288                           
  5289  0022  0871               	movf	??_INTERRUPT_InterruptManager,w
  5290  0023  0020               	movlb	0	; select bank0
  5291  0024  00FF               	movwf	127
  5292  0025  107E               	bcf	126,0	;clear compiler interrupt flag (level 1)
  5293  0026  0009               	retfie
  5294  0027                     __end_of_INTERRUPT_InterruptManager:	
  5295                           
  5296                           	psect	text22
  5297  03A3                     __ptext22:	
  5298 ;; *************** function _EUSART_Transmit_ISR *****************
  5299 ;; Defined at:
  5300 ;;		line 172 in file "mcc_generated_files/eusart.c"
  5301 ;; Parameters:    Size  Location     Type
  5302 ;;		None
  5303 ;; Auto vars:     Size  Location     Type
  5304 ;;		None
  5305 ;; Return value:  Size  Location     Type
  5306 ;;                  1    wreg      void 
  5307 ;; Registers used:
  5308 ;;		wreg, fsr1l, fsr1h, status,2, status,0
  5309 ;; Tracked objects:
  5310 ;;		On entry : 0/0
  5311 ;;		On exit  : 0/0
  5312 ;;		Unchanged: 0/0
  5313 ;; Data sizes:     COMMON   BANK0   BANK1   BANK2   BANK3   BANK4   BANK5   BANK6   BANK7   BANK8   BANK9  BANK10  BANK1
      +1  BANK12
  5314 ;;      Params:         0       0       0       0       0       0       0       0       0       0       0       0       
      +0       0
  5315 ;;      Locals:         0       0       0       0       0       0       0       0       0       0       0       0       
      +0       0
  5316 ;;      Temps:          1       0       0       0       0       0       0       0       0       0       0       0       
      +0       0
  5317 ;;      Totals:         1       0       0       0       0       0       0       0       0       0       0       0       
      +0       0
  5318 ;;Total ram usage:        1 bytes
  5319 ;; Hardware stack levels used:    1
  5320 ;; This function calls:
  5321 ;;		Nothing
  5322 ;; This function is called by:
  5323 ;;		_EUSART_Initialize
  5324 ;;		_INTERRUPT_InterruptManager
  5325 ;; This function uses a non-reentrant model
  5326 ;;
  5327                           
  5328                           
  5329                           ;psect for function _EUSART_Transmit_ISR
  5330  03A3                     _EUSART_Transmit_ISR:	
  5331                           
  5332                           ;eusart.c: 176: if(sizeof(eusartTxBuffer) > eusartTxBufferRemaining)
  5333                           
  5334                           ;incstack = 0
  5335                           ; Regs used in _EUSART_Transmit_ISR: [wreg+fsr1l+fsr1h+status,2+status,0]
  5336  03A3  3008               	movlw	8
  5337  03A4  0020               	movlb	0	; select bank0
  5338  03A5  026A               	subwf	_eusartTxBufferRemaining,w	;volatile
  5339  03A6  1803               	skipnc
  5340  03A7  2BBD               	goto	i1l79
  5341                           
  5342                           ;eusart.c: 177: {
  5343                           ;eusart.c: 178: TX1REG = eusartTxBuffer[eusartTxTail++];
  5344  03A8  086F               	movf	_eusartTxTail,w
  5345  03A9  3EE3               	addlw	(low (_eusartTxBuffer| 0))& (0+255)
  5346  03AA  0086               	movwf	6
  5347  03AB  0187               	clrf	7
  5348  03AC  0801               	movf	1,w
  5349  03AD  0023               	movlb	3	; select bank3
  5350  03AE  009A               	movwf	26	;volatile
  5351  03AF  3001               	movlw	1
  5352  03B0  00F0               	movwf	??_EUSART_Transmit_ISR
  5353  03B1  0870               	movf	??_EUSART_Transmit_ISR,w
  5354  03B2  0020               	movlb	0	; select bank0
  5355  03B3  07EF               	addwf	_eusartTxTail,f	;volatile
  5356                           
  5357                           ;eusart.c: 179: if(sizeof(eusartTxBuffer) <= eusartTxTail)
  5358  03B4  3008               	movlw	8
  5359  03B5  026F               	subwf	_eusartTxTail,w	;volatile
  5360  03B6  1803               	btfsc	3,0
  5361                           
  5362                           ;eusart.c: 180: {
  5363                           ;eusart.c: 181: eusartTxTail = 0;
  5364  03B7  01EF               	clrf	_eusartTxTail	;volatile
  5365                           
  5366                           ;eusart.c: 182: }
  5367                           ;eusart.c: 183: eusartTxBufferRemaining++;
  5368  03B8  3001               	movlw	1
  5369  03B9  00F0               	movwf	??_EUSART_Transmit_ISR
  5370  03BA  0870               	movf	??_EUSART_Transmit_ISR,w
  5371  03BB  07EA               	addwf	_eusartTxBufferRemaining,f	;volatile
  5372                           
  5373                           ;eusart.c: 184: }
  5374  03BC  0008               	return
  5375  03BD                     i1l79:	
  5376                           
  5377                           ;eusart.c: 185: else
  5378                           ;eusart.c: 186: {
  5379                           ;eusart.c: 187: PIE1bits.TXIE = 0;
  5380  03BD  0021               	movlb	1	; select bank1
  5381  03BE  1210               	bcf	16,4	;volatile
  5382  03BF  0008               	return
  5383  03C0                     __end_of_EUSART_Transmit_ISR:	
  5384                           
  5385                           	psect	text23
  5386  03C0                     __ptext23:	
  5387 ;; *************** function _EUSART_Receive_ISR *****************
  5388 ;; Defined at:
  5389 ;;		line 191 in file "mcc_generated_files/eusart.c"
  5390 ;; Parameters:    Size  Location     Type
  5391 ;;		None
  5392 ;; Auto vars:     Size  Location     Type
  5393 ;;		None
  5394 ;; Return value:  Size  Location     Type
  5395 ;;                  1    wreg      void 
  5396 ;; Registers used:
  5397 ;;		wreg, fsr1l, fsr1h, status,2, status,0
  5398 ;; Tracked objects:
  5399 ;;		On entry : 0/0
  5400 ;;		On exit  : 0/0
  5401 ;;		Unchanged: 0/0
  5402 ;; Data sizes:     COMMON   BANK0   BANK1   BANK2   BANK3   BANK4   BANK5   BANK6   BANK7   BANK8   BANK9  BANK10  BANK1
      +1  BANK12
  5403 ;;      Params:         0       0       0       0       0       0       0       0       0       0       0       0       
      +0       0
  5404 ;;      Locals:         0       0       0       0       0       0       0       0       0       0       0       0       
      +0       0
  5405 ;;      Temps:          1       0       0       0       0       0       0       0       0       0       0       0       
      +0       0
  5406 ;;      Totals:         1       0       0       0       0       0       0       0       0       0       0       0       
      +0       0
  5407 ;;Total ram usage:        1 bytes
  5408 ;; Hardware stack levels used:    1
  5409 ;; This function calls:
  5410 ;;		Nothing
  5411 ;; This function is called by:
  5412 ;;		_EUSART_Initialize
  5413 ;;		_INTERRUPT_InterruptManager
  5414 ;; This function uses a non-reentrant model
  5415 ;;
  5416                           
  5417                           
  5418                           ;psect for function _EUSART_Receive_ISR
  5419  03C0                     _EUSART_Receive_ISR:	
  5420                           
  5421                           ;eusart.c: 194: if(1 == RC1STAbits.OERR)
  5422                           
  5423                           ;incstack = 0
  5424                           ; Regs used in _EUSART_Receive_ISR: [wreg+fsr1l+fsr1h+status,2+status,0]
  5425  03C0  0023               	movlb	3	; select bank3
  5426  03C1  1C9D               	btfss	29,1	;volatile
  5427  03C2  2BC5               	goto	i1l1174
  5428                           
  5429                           ;eusart.c: 195: {
  5430                           ;eusart.c: 198: RC1STAbits.CREN = 0;
  5431  03C3  121D               	bcf	29,4	;volatile
  5432                           
  5433                           ;eusart.c: 199: RC1STAbits.CREN = 1;
  5434  03C4  161D               	bsf	29,4	;volatile
  5435  03C5                     i1l1174:	
  5436                           
  5437                           ;eusart.c: 200: }
  5438                           ;eusart.c: 203: eusartRxBuffer[eusartRxHead++] = RC1REG;
  5439  03C5  0819               	movf	25,w	;volatile
  5440  03C6  00F0               	movwf	??_EUSART_Receive_ISR
  5441  03C7  0020               	movlb	0	; select bank0
  5442  03C8  086E               	movf	_eusartRxHead,w
  5443  03C9  3E60               	addlw	(low (_eusartRxBuffer| (0+256)))& (0+255)
  5444  03CA  0086               	movwf	6
  5445  03CB  3001               	movlw	1	; select bank2/3
  5446  03CC  0087               	movwf	7
  5447  03CD  0870               	movf	??_EUSART_Receive_ISR,w
  5448  03CE  0081               	movwf	1
  5449  03CF  3001               	movlw	1
  5450  03D0  00F0               	movwf	??_EUSART_Receive_ISR
  5451  03D1  0870               	movf	??_EUSART_Receive_ISR,w
  5452  03D2  07EE               	addwf	_eusartRxHead,f	;volatile
  5453                           
  5454                           ;eusart.c: 204: if(sizeof(eusartRxBuffer) <= eusartRxHead)
  5455  03D3  3008               	movlw	8
  5456  03D4  026E               	subwf	_eusartRxHead,w	;volatile
  5457  03D5  1803               	btfsc	3,0
  5458                           
  5459                           ;eusart.c: 205: {
  5460                           ;eusart.c: 206: eusartRxHead = 0;
  5461  03D6  01EE               	clrf	_eusartRxHead	;volatile
  5462                           
  5463                           ;eusart.c: 207: }
  5464                           ;eusart.c: 208: eusartRxCount++;
  5465  03D7  3001               	movlw	1
  5466  03D8  00F0               	movwf	??_EUSART_Receive_ISR
  5467  03D9  0870               	movf	??_EUSART_Receive_ISR,w
  5468  03DA  07FA               	addwf	_eusartRxCount,f	;volatile
  5469  03DB  0008               	return
  5470  03DC                     __end_of_EUSART_Receive_ISR:	
  5471  007E                     btemp	set	126	;btemp
  5472  007E                     int$flags	set	126
  5473  007E                     wtemp0	set	126


Data Sizes:
    Strings     0
    Constant    0
    Data        0
    BSS         151
    Persistent  5
    Stack       0

Auto Spaces:
    Space          Size  Autos    Used
    COMMON           14     10      12
    BANK0            80     70      80
    BANK1            80     67      75
    BANK2            80      0      72
    BANK3            80      0      64
    BANK4            80      0       0
    BANK5            80      0       0
    BANK6            80      0       0
    BANK7            80      0       0
    BANK8            80      0       0
    BANK9            80      0       0
    BANK10           80      0       0
    BANK11           80      0       0
    BANK12           48      0       0

Pointer List with Targets:

    Verif_Erreur@buf	PTR unsigned char  size(1) Largest target is 64
		 -> init_A@buf(BANK0[64]), 

    EUSART_SetRxInterruptHandler@interruptHandler	PTR FTN()void  size(2) Largest target is 1
		 -> EUSART_Receive_ISR(), 

    EUSART_RxDefaultInterruptHandler	PTR FTN()void  size(2) Largest target is 1
		 -> Absolute function(), EUSART_Receive_ISR(), 

    EUSART_SetTxInterruptHandler@interruptHandler	PTR FTN()void  size(2) Largest target is 1
		 -> EUSART_Transmit_ISR(), 

    EUSART_TxDefaultInterruptHandler	PTR FTN()void  size(2) Largest target is 1
		 -> Absolute function(), EUSART_Transmit_ISR(), 


Critical Paths under _main in COMMON

    _main->_init_A
    _remote->_EUSART_Write
    _init_A->_Verif_Erreur
    _Verif_Erreur->_EUSART_Read
    _Turn_On->_EUSART_Write
    _StopScan->_EUSART_Write
    _Set_Mode->_EUSART_Write
    _Set_Features->_EUSART_Write
    _Scan->_EUSART_Write
    _Reboot->_EUSART_Write
    _Partiel_Reset->_EUSART_Write
    _Config_Name->_EUSART_Write
    _connexion->_EUSART_Write
    _SYSTEM_Initialize->_EUSART_Initialize
    _EUSART_Initialize->_EUSART_SetRxInterruptHandler
    _EUSART_Initialize->_EUSART_SetTxInterruptHandler

Critical Paths under _INTERRUPT_InterruptManager in COMMON

    _INTERRUPT_InterruptManager->_EUSART_Receive_ISR
    _INTERRUPT_InterruptManager->_EUSART_Transmit_ISR

Critical Paths under _main in BANK0

    _main->_init_A
    _init_A->_Verif_Erreur

Critical Paths under _INTERRUPT_InterruptManager in BANK0

    None.

Critical Paths under _main in BANK1

    None.

Critical Paths under _INTERRUPT_InterruptManager in BANK1

    None.

Critical Paths under _main in BANK2

    None.

Critical Paths under _INTERRUPT_InterruptManager in BANK2

    None.

Critical Paths under _main in BANK3

    None.

Critical Paths under _INTERRUPT_InterruptManager in BANK3

    None.

Critical Paths under _main in BANK4

    None.

Critical Paths under _INTERRUPT_InterruptManager in BANK4

    None.

Critical Paths under _main in BANK5

    None.

Critical Paths under _INTERRUPT_InterruptManager in BANK5

    None.

Critical Paths under _main in BANK6

    None.

Critical Paths under _INTERRUPT_InterruptManager in BANK6

    None.

Critical Paths under _main in BANK7

    None.

Critical Paths under _INTERRUPT_InterruptManager in BANK7

    None.

Critical Paths under _main in BANK8

    None.

Critical Paths under _INTERRUPT_InterruptManager in BANK8

    None.

Critical Paths under _main in BANK9

    None.

Critical Paths under _INTERRUPT_InterruptManager in BANK9

    None.

Critical Paths under _main in BANK10

    None.

Critical Paths under _INTERRUPT_InterruptManager in BANK10

    None.

Critical Paths under _main in BANK11

    None.

Critical Paths under _INTERRUPT_InterruptManager in BANK11

    None.

Critical Paths under _main in BANK12

    None.

Critical Paths under _INTERRUPT_InterruptManager in BANK12

    None.

Call Graph Tables:

 ---------------------------------------------------------------------------------
 (Depth) Function   	        Calls       Base Space   Used Autos Params    Refs
 ---------------------------------------------------------------------------------
 (0) _main                                                67    67      0    1628
                                              0 BANK1     67    67      0
                       _EUSART_Write
                  _SYSTEM_Initialize
                          _connexion
                             _init_A
                             _remote
 ---------------------------------------------------------------------------------
 (1) _remote                                               0     0      0      44
                       _EUSART_Write
 ---------------------------------------------------------------------------------
 (1) _init_A                                              67    67      0    1340
                                              8 COMMON     2     2      0
                                              5 BANK0     65    65      0
                        _Config_Name
                      _Partiel_Reset
                             _Reboot
                               _Scan
                       _Set_Features
                           _Set_Mode
                           _StopScan
                            _Turn_On
                       _Verif_Erreur
 ---------------------------------------------------------------------------------
 (2) _Verif_Erreur                                         9     7      2     800
                                              4 COMMON     4     2      2
                                              0 BANK0      5     5      0
                        _EUSART_Read
 ---------------------------------------------------------------------------------
 (3) _EUSART_Read                                          2     2      0      24
                                              2 COMMON     2     2      0
 ---------------------------------------------------------------------------------
 (2) _Turn_On                                              0     0      0      44
                       _EUSART_Write
 ---------------------------------------------------------------------------------
 (2) _StopScan                                             0     0      0      44
                       _EUSART_Write
 ---------------------------------------------------------------------------------
 (2) _Set_Mode                                             0     0      0      44
                       _EUSART_Write
 ---------------------------------------------------------------------------------
 (2) _Set_Features                                         0     0      0      44
                       _EUSART_Write
 ---------------------------------------------------------------------------------
 (2) _Scan                                                 0     0      0      44
                       _EUSART_Write
 ---------------------------------------------------------------------------------
 (2) _Reboot                                               0     0      0      44
                       _EUSART_Write
 ---------------------------------------------------------------------------------
 (2) _Partiel_Reset                                        0     0      0      44
                       _EUSART_Write
 ---------------------------------------------------------------------------------
 (2) _Config_Name                                          0     0      0      44
                       _EUSART_Write
 ---------------------------------------------------------------------------------
 (1) _connexion                                            2     2      0      44
                                              4 COMMON     2     2      0
                       _EUSART_Write
 ---------------------------------------------------------------------------------
 (2) _EUSART_Write                                         2     2      0      44
                                              2 COMMON     2     2      0
 ---------------------------------------------------------------------------------
 (1) _SYSTEM_Initialize                                    0     0      0     150
                  _EUSART_Initialize
              _OSCILLATOR_Initialize
             _PIN_MANAGER_Initialize
 ---------------------------------------------------------------------------------
 (2) _PIN_MANAGER_Initialize                               0     0      0       0
 ---------------------------------------------------------------------------------
 (2) _OSCILLATOR_Initialize                                0     0      0       0
 ---------------------------------------------------------------------------------
 (2) _EUSART_Initialize                                    1     1      0     150
                                              4 COMMON     1     1      0
       _EUSART_SetRxInterruptHandler
       _EUSART_SetTxInterruptHandler
 ---------------------------------------------------------------------------------
 (3) _EUSART_SetTxInterruptHandler                         2     0      2      75
                                              2 COMMON     2     0      2
 ---------------------------------------------------------------------------------
 (3) _EUSART_SetRxInterruptHandler                         2     0      2      75
                                              2 COMMON     2     0      2
 ---------------------------------------------------------------------------------
 Estimated maximum stack depth 3
 ---------------------------------------------------------------------------------
 (Depth) Function   	        Calls       Base Space   Used Autos Params    Refs
 ---------------------------------------------------------------------------------
 (4) _INTERRUPT_InterruptManager                           1     1      0       0
                                              1 COMMON     1     1      0
                   Absolute function *
                 _EUSART_Receive_ISR *
                _EUSART_Transmit_ISR *
 ---------------------------------------------------------------------------------
 (5) _EUSART_Transmit_ISR                                  1     1      0       0
                                              0 COMMON     1     1      0
 ---------------------------------------------------------------------------------
 (5) _EUSART_Receive_ISR                                   1     1      0       0
                                              0 COMMON     1     1      0
 ---------------------------------------------------------------------------------
 (5) Absolute function(Fake)                               0     0      0       0
 ---------------------------------------------------------------------------------
 Estimated maximum stack depth 5
 ---------------------------------------------------------------------------------

 Call Graph Graphs:

 _main (ROOT)
   _EUSART_Write
   _SYSTEM_Initialize
     _EUSART_Initialize
       _EUSART_SetRxInterruptHandler
       _EUSART_SetTxInterruptHandler
     _OSCILLATOR_Initialize
     _PIN_MANAGER_Initialize
   _connexion
     _EUSART_Write
   _init_A
     _Config_Name
       _EUSART_Write
     _Partiel_Reset
       _EUSART_Write
     _Reboot
       _EUSART_Write
     _Scan
       _EUSART_Write
     _Set_Features
       _EUSART_Write
     _Set_Mode
       _EUSART_Write
     _StopScan
       _EUSART_Write
     _Turn_On
       _EUSART_Write
     _Verif_Erreur
       _EUSART_Read
   _remote
     _EUSART_Write

 _INTERRUPT_InterruptManager (ROOT)
   Absolute function(Fake) *
   _EUSART_Receive_ISR *
   _EUSART_Transmit_ISR *

 Address spaces:
Name               Size   Autos  Total    Cost      Usage
BIGRAM             3F0      0       0       0        0.0%
NULL                 0      0       0       0        0.0%
CODE                 0      0       0       0        0.0%
BITCOMMON            E      0       0       1        0.0%
BITSFR0              0      0       0       1        0.0%
SFR0                 0      0       0       1        0.0%
COMMON               E      A       C       2       85.7%
BITSFR1              0      0       0       2        0.0%
SFR1                 0      0       0       2        0.0%
BITSFR2              0      0       0       3        0.0%
SFR2                 0      0       0       3        0.0%
STACK                0      0       0       3        0.0%
BITBANK0            50      0       0       4        0.0%
BITSFR3              0      0       0       4        0.0%
SFR3                 0      0       0       4        0.0%
BANK0               50     46      50       5      100.0%
BITSFR4              0      0       0       5        0.0%
SFR4                 0      0       0       5        0.0%
BITBANK1            50      0       0       6        0.0%
BITSFR5              0      0       0       6        0.0%
SFR5                 0      0       0       6        0.0%
BANK1               50     43      4B       7       93.8%
BITSFR6              0      0       0       7        0.0%
SFR6                 0      0       0       7        0.0%
BITBANK2            50      0       0       8        0.0%
BITSFR7              0      0       0       8        0.0%
SFR7                 0      0       0       8        0.0%
BANK2               50      0      48       9       90.0%
BITSFR8              0      0       0       9        0.0%
SFR8                 0      0       0       9        0.0%
BITBANK3            50      0       0      10        0.0%
BITSFR9              0      0       0      10        0.0%
SFR9                 0      0       0      10        0.0%
BANK3               50      0      40      11       80.0%
BITSFR10             0      0       0      11        0.0%
SFR10                0      0       0      11        0.0%
BITBANK4            50      0       0      12        0.0%
BITSFR11             0      0       0      12        0.0%
SFR11                0      0       0      12        0.0%
BANK4               50      0       0      13        0.0%
BITSFR12             0      0       0      13        0.0%
SFR12                0      0       0      13        0.0%
BITBANK5            50      0       0      14        0.0%
BITSFR13             0      0       0      14        0.0%
SFR13                0      0       0      14        0.0%
BANK5               50      0       0      15        0.0%
BITSFR14             0      0       0      15        0.0%
SFR14                0      0       0      15        0.0%
BITBANK6            50      0       0      16        0.0%
BITSFR15             0      0       0      16        0.0%
SFR15                0      0       0      16        0.0%
BANK6               50      0       0      17        0.0%
BITSFR16             0      0       0      17        0.0%
SFR16                0      0       0      17        0.0%
BITBANK7            50      0       0      18        0.0%
BITSFR17             0      0       0      18        0.0%
SFR17                0      0       0      18        0.0%
BANK7               50      0       0      19        0.0%
BITSFR18             0      0       0      19        0.0%
SFR18                0      0       0      19        0.0%
BITSFR19             0      0       0      20        0.0%
SFR19                0      0       0      20        0.0%
ABS                  0      0     12F      20        0.0%
BITBANK8            50      0       0      21        0.0%
BITSFR20             0      0       0      21        0.0%
SFR20                0      0       0      21        0.0%
BANK8               50      0       0      22        0.0%
BITSFR21             0      0       0      22        0.0%
SFR21                0      0       0      22        0.0%
BITBANK9            50      0       0      23        0.0%
BITSFR22             0      0       0      23        0.0%
SFR22                0      0       0      23        0.0%
BANK9               50      0       0      24        0.0%
BITSFR23             0      0       0      24        0.0%
SFR23                0      0       0      24        0.0%
BITBANK10           50      0       0      25        0.0%
BITSFR24             0      0       0      25        0.0%
SFR24                0      0       0      25        0.0%
BANK10              50      0       0      26        0.0%
BITSFR25             0      0       0      26        0.0%
SFR25                0      0       0      26        0.0%
BITBANK11           50      0       0      27        0.0%
BITSFR26             0      0       0      27        0.0%
SFR26                0      0       0      27        0.0%
BANK11              50      0       0      28        0.0%
BITSFR27             0      0       0      28        0.0%
SFR27                0      0       0      28        0.0%
BITBANK12           30      0       0      29        0.0%
BITSFR28             0      0       0      29        0.0%
SFR28                0      0       0      29        0.0%
BANK12              30      0       0      30        0.0%
BITSFR29             0      0       0      30        0.0%
SFR29                0      0       0      30        0.0%
BITSFR30             0      0       0      31        0.0%
SFR30                0      0       0      31        0.0%
DATA                 0      0     12F      31        0.0%
BITSFR31             0      0       0      32        0.0%
SFR31                0      0       0      32        0.0%


Microchip Technology PIC Macro Assembler V1.45 build -152302408 
Symbol Table                                                                                   Wed Jul 04 14:21:05 2018

               ?_EUSART_SetRxInterruptHandler 0072                                             _i 006B  
                                 __CFG_CP$OFF 0000                                            l73 034C  
                                 __CFG_LVP$ON 0000                                           _RA1 0061  
                                         _RA2 0062                                           _RA5 0065  
                                         _RC4 0074                                           _RC5 0075  
                                         u420 013A                                           u510 0062  
                                         u335 0202                                           u607 00D2  
                                         u617 00E2                                           u707 0284  
                                         u627 00F2                                           u547 0072  
                                         u637 0102                                           u557 0082  
                                         u647 0112                                           u567 0092  
                                         u657 0153                                           u577 00A2  
                                         u667 01D3                                           u587 00B2  
                                         u677 020E                                           u597 00C2  
                                         u687 021E                                           u697 0229  
                                __CFG_BORV$LO 0000                                           wreg 0009  
                                __CFG_IESO$ON 0000                                  ?_EUSART_Read 0070  
                                __CFG_ZCD$OFF 0000                                          l1002 0387  
                                        l1024 0341                                          l1120 01EB  
                                        l1140 021B                                          l1108 01D0  
                                        l1038 0360                                          l1134 0213  
                                        l1118 01E7                                          l1128 0205  
                                        l1146 022E                                          l1380 0127  
                                        l1382 011A                                          _LATA 010C  
                                        _LATB 010D                                          _LATC 010E  
                                        i1l79 03BD                                          _WPUA 020C  
                                        _WPUB 020D                                          _WPUC 020E  
                                        _Scan 0434                                  __CFG_WRT$OFF 0000  
                               __CFG_FCMEN$ON 0000                                          _main 004C  
                                        fsr0h 0005                                          fsr1h 0007  
                                        indf0 0000                                          fsr0l 0004  
                                        indf1 0001                                          fsr1l 0006  
                                        btemp 007E                                 __CFG_BOREN$ON 0000  
                                        start 0027                                 __CFG_MCLRE$ON 0000  
                         __end_of_Config_Name 0340                               Verif_Erreur@buf 0024  
                               __CFG_PLLEN$ON 0000                                 ?_EUSART_Write 0070  
              __size_of_OSCILLATOR_Initialize 0007                                         ?_Scan 0070  
               __end_of_OSCILLATOR_Initialize 0450                                         ?_main 0070  
                               __CFG_WDTE$OFF 0000                               __end_of_Turn_On 0428  
                                       i1l114 0022                                         i1l109 0017  
                                       _TRISA 008C                                         _TRISB 008D  
                                       _TRISC 008E                                         _RXPPS 0E24  
                                       pclath 000A                                         status 0003  
                                       wtemp0 007E                               __initialization 0029  
                                __end_of_Scan 0440                                  __end_of_main 012E  
                              ??_EUSART_Write 0072                                __CFG_LPBOR$OFF 0000  
                 ?_INTERRUPT_InterruptManager 0070                                        ??_Scan 0074  
              ??_EUSART_SetRxInterruptHandler 0074                                        ??_main 00A0  
                            __end_of_Set_Mode 02C0                                   init_A@error 0065  
                            Verif_Erreur@size 0074                              __end_of_StopScan 0434  
                                      _ANSELA 018C                                        _ANSELB 018D  
                                      _ANSELC 018E                                        _BORCON 0116  
                                      _RC1REG 0199                                        _RC1STA 019D  
                                      _RB7PPS 0E9F                                        i1l1174 03C5  
                                      _ODCONA 028C                                        _ODCONB 028D  
                                      _ODCONC 028E                                        _OSCCON 0099  
                                      _SPBRGH 019C                                        _SPBRGL 019B  
                                      _TX1REG 019A                                   _Config_Name 031C  
                                      _TX1STA 019E                                __CFG_PWRTE$OFF 0000  
                                      _Reboot 0408                                __CFG_STVREN$ON 0000  
                                   ??_Turn_On 0074                           _EUSART_Transmit_ISR 03A3  
                                      _init_A 012E                                        _remote 03F4  
                               ?_Set_Features 0070                          ?_EUSART_Transmit_ISR 0070  
                        __size_of_EUSART_Read 001D                             _SYSTEM_Initialize 0440  
                      __size_of_Partiel_Reset 0018                       __end_of__initialization 0048  
                          ?_SYSTEM_Initialize 0070          __end_of_EUSART_SetTxInterruptHandler 045C  
       __size_of_EUSART_SetTxInterruptHandler 0006                  _EUSART_SetTxInterruptHandler 0456  
                                init_A@F12056 01A0                                __pcstackCOMMON 0070  
                         ??_SYSTEM_Initialize 0075                                _OPTION_REGbits 0095  
                              ??_Set_Features 0074                     __end_of_SYSTEM_Initialize 0449  
                       ??_EUSART_Transmit_ISR 0070                            __size_of_connexion 0055  
                                  __pbssBANK0 006B                                    __pbssBANK1 00E3  
                                  __pbssBANK2 0120                                    __pbssBANK3 01A0  
                        __end_of_EUSART_Write 0363                   __size_of_EUSART_Receive_ISR 001C  
                                   ?_Set_Mode 0070                                       ?_Reboot 0070  
                                  __pmaintext 004C                 ?_EUSART_SetTxInterruptHandler 0072  
            _EUSART_TxDefaultInterruptHandler 0068                               __CFG_PPS1WAY$ON 0000  
                                  __pintentry 0004                                       ?_init_A 0070  
                                   ?_StopScan 0070                                 _Partiel_Reset 03DC  
                                     ?_remote 0070                                 _eusartRxCount 007A  
                             __CFG_WDTCCS$SWC 0000                                       _OSCTUNE 0098  
                                  ??_Set_Mode 0074                               __size_of_Reboot 0014  
                               ?_Verif_Erreur 0074                                       _Turn_On 041C  
                           __end_of_connexion 028C                                ?_Partiel_Reset 0070  
                                  ??_StopScan 0074                               __size_of_init_A 009C  
                             __size_of_remote 0014                                       __ptext1 03F4  
                                     __ptext2 012E                                       __ptext3 01CA  
                                     __ptext4 0386                                       __ptext5 041C  
                                     __ptext6 0428                                       __ptext7 028C  
                                     __ptext8 02C0                                       __ptext9 0434  
                       _OSCILLATOR_Initialize 0449                      ??_PIN_MANAGER_Initialize 0072  
                                     main@buf 00A2                    __size_of_SYSTEM_Initialize 0009  
                                     clrloop0 0451                          end_of_initialization 0048  
                                ?_Config_Name 0070                             _EUSART_Initialize 02F4  
                          ?_EUSART_Initialize 0070                          __end_of_Set_Features 02F4  
                              ??_Verif_Erreur 0076                                    main@F12049 0120  
                         ??_EUSART_Initialize 0074                ??_EUSART_SetTxInterruptHandler 0074  
                            __CFG_FOSC$INTOSC 0000                         __size_of_EUSART_Write 0023  
                   __end_of_EUSART_Initialize 031C                                __end_of_Reboot 041C  
                             ??_Partiel_Reset 0074                                  _EUSART_Write 0340  
                              __end_of_init_A 01CA                        ?_OSCILLATOR_Initialize 0070  
                              __end_of_remote 0408                           start_initialization 0029  
             __size_of_PIN_MANAGER_Initialize 0023                                 ??_EUSART_Read 0072  
EUSART_SetRxInterruptHandler@interruptHandler 0072  EUSART_SetTxInterruptHandler@interruptHandler 0072  
                                    ??_Reboot 0074                             __size_of_Set_Mode 0034  
                                    ??_init_A 0078                                      ??_remote 0074  
                           __size_of_StopScan 000C                   __end_of_EUSART_Transmit_ISR 03C0  
                                 __pbssCOMMON 007A                                     ___latbits 0002  
                               __pcstackBANK0 0020                                 __pcstackBANK1 00A0  
                        __end_of_Verif_Erreur 0237                    __end_of_EUSART_Receive_ISR 03DC  
                  __size_of_EUSART_Initialize 0028                         __size_of_Set_Features 0034  
            _EUSART_RxDefaultInterruptHandler 0066                           __end_of_EUSART_Read 03A3  
                                   __pnvBANK0 0066                          __size_of_Config_Name 0024  
                      _PIN_MANAGER_Initialize 0363                          EUSART_Read@readValue 0073  
                                    ?_Turn_On 0070                                  _eusartRxHead 006E  
                                _eusartTxHead 007B                                  _eusartRxTail 006D  
                                _eusartTxTail 006F                  ??_INTERRUPT_InterruptManager 0071  
                     _eusartTxBufferRemaining 006A                                     _connexion 0237  
                                    _BAUD1CON 019F                                  _Set_Features 02C0  
                              _eusartRxBuffer 0160                                _eusartTxBuffer 00E3  
                                   clear_ram0 0450                                      _PIE1bits 0090  
         __size_of_INTERRUPT_InterruptManager 0023                                      _PIR1bits 0010  
                        __CFG_WDTCPS$WDTCPS1F 0000                                    ?_connexion 0070  
                                   main@error 00E2                                 Verif_Erreur@i 0020  
                               Verif_Erreur@j 0022                                   _EUSART_Read 0386  
                                   init_A@buf 0025                                      _Set_Mode 028C  
                     ??_OSCILLATOR_Initialize 0072                                      _StopScan 0428  
                            __size_of_Turn_On 000C                         __size_of_Verif_Erreur 006D  
                                    __ptext10 0408                                      __ptext11 03DC  
                                    __ptext20 045C                                      __ptext12 031C  
                                    __ptext13 0237                                      __ptext22 03A3  
                                    __ptext14 0340                                      __ptext23 03C0  
                                    __ptext15 0440                                      __ptext16 0363  
                                    __ptext17 0449                                      __ptext18 02F4  
                                    __ptext19 0456                                 __size_of_Scan 000C  
                               __size_of_main 00E2                          __CFG_WDTCWS$WDTCWSSW 0000  
                                  _RC1STAbits 019D                                      int$flags 007E  
                                _Verif_Erreur 01CA            __end_of_INTERRUPT_InterruptManager 0027  
                  _INTERRUPT_InterruptManager 0004                         __end_of_Partiel_Reset 03F4  
                                 ??_connexion 0074                                    _INTCONbits 000B  
                                    intlevel1 0000                       ?_PIN_MANAGER_Initialize 0070  
                           __CFG_CLKOUTEN$OFF 0000          __end_of_EUSART_SetRxInterruptHandler 0462  
       __size_of_EUSART_SetRxInterruptHandler 0006                  _EUSART_SetRxInterruptHandler 045C  
                          _EUSART_Receive_ISR 03C0                           ?_EUSART_Receive_ISR 0070  
                                  _TX1STAbits 019E                            EUSART_Write@txData 0073  
                __size_of_EUSART_Transmit_ISR 001D                __end_of_PIN_MANAGER_Initialize 0386  
                               ??_Config_Name 0074                          ??_EUSART_Receive_ISR 0070  
